Certificate:
    Data:
        Version: 3 (0x2)
        Serial Number: 305419897 (0x12345679)
        Signature Algorithm: ecdsa-with-SHA384
        Issuer: CN=SRK1_sha384_secp384r1_v3_ca
        Validity
            Not Before: Feb  8 15:03:12 2024 GMT
            Not After : Jan 15 15:03:12 2124 GMT
        Subject: CN=SGK1_1_sha384_secp384r1_v3_usr
        Subject Public Key Info:
            Public Key Algorithm: id-ecPublicKey
                Public-Key: (384 bit)
                pub:
                    04:46:0d:a7:77:c5:f2:1f:cc:5c:6d:69:cb:a7:56:
                    e8:dc:b5:a7:65:5a:59:3c:f4:32:47:9e:6d:dd:50:
                    a7:fc:b7:66:38:6e:2d:c8:d4:26:5d:19:5c:7f:1d:
                    a6:1e:55:22:7b:53:ed:c1:41:d1:4e:3b:63:c9:39:
                    41:aa:55:8f:c5:86:34:bb:df:a1:42:63:15:7d:5c:
                    33:56:23:07:88:c0:67:e4:35:49:ba:96:eb:63:85:
                    ad:75:cf:aa:2a:5c:5c
                ASN1 OID: secp384r1
                NIST CURVE: P-384
        X509v3 extensions:
            X509v3 Basic Constraints: 
                CA:FALSE
            Netscape Comment: 
                OpenSSL Generated Certificate
            X509v3 Subject Key Identifier: 
                AA:6B:6B:0F:00:88:56:80:F5:05:C2:F5:B8:9D:FD:0C:E0:0D:96:13
            X509v3 Authority Key Identifier: 
                E8:6D:77:34:54:03:FB:FE:B0:F9:50:9F:DC:68:AC:23:E3:30:1E:94
    Signature Algorithm: ecdsa-with-SHA384
    Signature Value:
        30:65:02:31:00:f4:41:46:58:ee:3e:c5:d8:86:81:1a:d7:e7:
        e1:94:fc:64:53:ea:01:ea:00:6f:18:37:9e:8f:5e:4e:8f:09:
        60:1c:66:f2:61:40:e4:db:d9:b7:bd:45:b3:9d:78:fe:d2:02:
        30:50:9d:ae:26:c6:ec:9d:83:a3:b5:3f:8f:5c:a5:96:45:56:
        f4:16:da:a6:62:1b:ed:88:eb:11:57:71:60:0f:a8:fe:1f:51:
        3d:e6:31:10:9c:d6:25:83:2a:05:be:da:92
-----BEGIN CERTIFICATE-----
MIIB+zCCAYGgAwIBAgIEEjRWeTAKBggqhkjOPQQDAzAmMSQwIgYDVQQDDBtTUksx
X3NoYTM4NF9zZWNwMzg0cjFfdjNfY2EwIBcNMjQwMjA4MTUwMzEyWhgPMjEyNDAx
MTUxNTAzMTJaMCkxJzAlBgNVBAMMHlNHSzFfMV9zaGEzODRfc2VjcDM4NHIxX3Yz
X3VzcjB2MBAGByqGSM49AgEGBSuBBAAiA2IABEYNp3fF8h/MXG1py6dW6Ny1p2Va
WTz0Mkeebd1Qp/y3ZjhuLcjUJl0ZXH8dph5VIntT7cFB0U47Y8k5QapVj8WGNLvf
oUJjFX1cM1YjB4jAZ+Q1SbqW62OFrXXPqipcXKN7MHkwCQYDVR0TBAIwADAsBglg
hkgBhvhCAQ0EHxYdT3BlblNTTCBHZW5lcmF0ZWQgQ2VydGlmaWNhdGUwHQYDVR0O
BBYEFKpraw8AiFaA9QXC9bid/QzgDZYTMB8GA1UdIwQYMBaAFOhtdzRUA/v+sPlQ
n9xorCPjMB6UMAoGCCqGSM49BAMDA2gAMGUCMQD0QUZY7j7F2IaBGtfn4ZT8ZFPq
AeoAbxg3no9eTo8JYBxm8mFA5NvZt71Fs514/tICMFCdribG7J2Do7U/j1yllkVW
9BbapmIb7YjrEVdxYA+o/h9RPeYxEJzWJYMqBb7akg==
-----END CERTIFICATE-----
