Certificate:
    Data:
        Version: 3 (0x2)
        Serial Number: 305419902 (0x1234567e)
        Signature Algorithm: ecdsa-with-SHA384
        Issuer: CN=CA1_sha384_secp384r1_v3_ca
        Validity
            Not Before: Feb  8 15:03:13 2024 GMT
            Not After : Jan 15 15:03:13 2124 GMT
        Subject: CN=SRK4_sha384_secp384r1_v3_ca
        Subject Public Key Info:
            Public Key Algorithm: id-ecPublicKey
                Public-Key: (384 bit)
                pub:
                    04:6a:46:c9:17:2c:f0:62:4f:ce:61:f8:12:4a:f7:
                    ea:67:a8:4c:fe:a3:a1:dd:2b:17:82:c7:1f:88:36:
                    fc:d8:08:93:47:77:13:77:98:22:a4:e8:4a:68:c2:
                    76:08:e6:13:7c:87:0f:93:ff:f4:cb:30:71:03:d3:
                    ad:ec:7d:6e:1b:f8:06:b5:5f:57:e3:f2:31:c8:9e:
                    10:70:6f:2f:e4:b8:30:d3:38:09:93:aa:78:a5:d4:
                    8e:b9:22:c0:6c:1f:8a
                ASN1 OID: secp384r1
                NIST CURVE: P-384
        X509v3 extensions:
            X509v3 Subject Key Identifier: 
                D5:B4:30:B4:7E:28:4D:25:4D:E2:56:CF:D9:14:32:30:57:4C:A2:F3
            X509v3 Authority Key Identifier: 
                keyid:F4:4C:39:CA:F1:5E:D9:60:BD:4D:54:E8:CE:48:8E:86:E1:A6:3D:05
                DirName:/CN=CA1_sha384_secp384r1_v3_ca
                serial:60:38:9E:E2:33:BB:FF:D4:86:1D:DF:3B:0E:51:86:98:0A:7E:6D:95
            X509v3 Basic Constraints: critical
                CA:TRUE
            X509v3 Key Usage: 
                Certificate Sign
    Signature Algorithm: ecdsa-with-SHA384
    Signature Value:
        30:65:02:30:79:a8:e7:5f:54:80:d0:fe:9f:a4:49:1c:2f:27:
        04:6a:26:df:96:1c:b5:6e:99:13:2d:3f:c9:a1:9f:b9:32:8a:
        3d:9e:46:1d:a8:5f:5f:28:47:fa:c9:95:ef:d3:78:9d:02:31:
        00:ab:61:e6:1c:0a:b8:db:4e:f0:b3:28:88:9e:d5:ec:64:d6:
        31:a2:d0:bd:95:46:5b:9e:72:f7:bf:b2:12:c6:c2:8e:fc:56:
        37:85:74:d8:2a:34:fd:2e:b0:39:55:f2:f6
-----BEGIN CERTIFICATE-----
MIICHzCCAaWgAwIBAgIEEjRWfjAKBggqhkjOPQQDAzAlMSMwIQYDVQQDFBpDQTFf
c2hhMzg0X3NlY3AzODRyMV92M19jYTAgFw0yNDAyMDgxNTAzMTNaGA8yMTI0MDEx
NTE1MDMxM1owJjEkMCIGA1UEAwwbU1JLNF9zaGEzODRfc2VjcDM4NHIxX3YzX2Nh
MHYwEAYHKoZIzj0CAQYFK4EEACIDYgAEakbJFyzwYk/OYfgSSvfqZ6hM/qOh3SsX
gscfiDb82AiTR3cTd5gipOhKaMJ2COYTfIcPk//0yzBxA9Ot7H1uG/gGtV9X4/Ix
yJ4QcG8v5Lgw0zgJk6p4pdSOuSLAbB+Ko4GiMIGfMB0GA1UdDgQWBBTVtDC0fihN
JU3iVs/ZFDIwV0yi8zBgBgNVHSMEWTBXgBT0TDnK8V7ZYL1NVOjOSI6G4aY9BaEp
pCcwJTEjMCEGA1UEAxQaQ0ExX3NoYTM4NF9zZWNwMzg0cjFfdjNfY2GCFGA4nuIz
u//Uhh3fOw5RhpgKfm2VMA8GA1UdEwEB/wQFMAMBAf8wCwYDVR0PBAQDAgIEMAoG
CCqGSM49BAMDA2gAMGUCMHmo519UgND+n6RJHC8nBGom35YctW6ZEy0/yaGfuTKK
PZ5GHahfXyhH+smV79N4nQIxAKth5hwKuNtO8LMoiJ7V7GTWMaLQvZVGW55y97+y
EsbCjvxWN4V02Co0/S6wOVXy9g==
-----END CERTIFICATE-----
