Certificate:
    Data:
        Version: 3 (0x2)
        Serial Number: 305419913 (0x12345689)
        Signature Algorithm: sha256WithRSAEncryption
        Issuer: CN=SRK2_sha256_4096_65537_v3_ca
        Validity
            Not Before: May 22 09:56:43 2019 GMT
            Not After : Apr 28 09:56:43 2119 GMT
        Subject: CN=IMG2_1_sha256_4096_65537_v3_usr
        Subject Public Key Info:
            Public Key Algorithm: rsaEncryption
                RSA Public-Key: (4096 bit)
                Modulus:
                    00:ef:43:01:df:b8:73:42:28:97:37:38:a0:90:df:
                    3c:f2:14:33:5c:0c:9d:99:75:65:ee:17:67:98:83:
                    30:f4:cd:c6:78:19:a4:7b:42:c8:30:cc:3f:8e:41:
                    88:b5:c5:8c:41:46:16:98:bd:a8:d5:69:fa:1e:9e:
                    3d:03:99:71:a3:29:e1:06:a2:21:dc:73:f0:50:6d:
                    96:78:43:c3:32:72:41:7d:11:31:31:fb:c8:77:a2:
                    3b:07:fd:df:62:96:6d:f0:25:2b:44:88:69:35:ba:
                    5b:1f:08:6d:9e:d5:7e:f0:5f:66:eb:66:09:fc:9f:
                    cb:2a:93:b3:fb:4e:48:6f:85:1a:52:30:b8:e7:bf:
                    63:e0:f0:40:83:07:dd:03:76:2a:81:29:74:09:c4:
                    c8:c4:89:9d:90:a0:35:e2:7c:4a:59:f9:73:4e:8c:
                    7a:dd:ef:a5:27:6e:48:be:fa:b6:06:48:dd:a0:65:
                    59:cb:85:54:6c:62:64:7c:11:f1:dc:52:ad:0f:3f:
                    24:d6:c4:85:fb:55:3a:5c:e0:ec:79:90:48:82:fd:
                    90:60:79:53:c5:f6:2a:40:95:44:18:50:7f:11:ef:
                    45:12:c9:02:7b:00:1d:de:c5:62:b6:4e:ed:86:e9:
                    4b:46:71:15:f9:ec:89:bc:21:63:c3:10:05:fb:e8:
                    4c:b8:b9:fe:8e:ca:0a:d7:26:55:ee:28:40:fb:f1:
                    be:31:74:a5:20:24:ad:ae:e4:c8:23:98:24:8d:04:
                    10:6f:67:da:c3:31:1c:20:38:b4:8c:3f:67:99:96:
                    e2:39:2d:aa:0f:8b:65:f3:92:4d:89:8b:2c:9b:28:
                    a3:a3:d8:b5:6d:99:1a:6b:ec:7f:f4:36:93:69:24:
                    1c:f2:9c:5e:b6:7b:73:4e:4f:02:a6:2c:e7:31:ea:
                    52:56:59:f4:21:58:b5:ac:d0:3e:96:db:02:91:45:
                    f2:ca:49:7a:9a:70:01:97:59:1a:de:2d:af:5c:0d:
                    69:68:72:83:9f:fc:33:40:a6:d4:09:6c:5d:31:65:
                    6c:97:84:54:be:92:5b:7a:d2:2d:5f:be:ed:eb:4c:
                    d5:fa:62:81:09:cf:41:79:3f:e9:95:3d:40:8b:5f:
                    ff:1e:bd:50:dd:2a:a6:10:93:eb:5b:05:e8:30:a3:
                    01:c1:7b:37:b3:27:2d:8e:68:37:2c:d9:6d:36:5d:
                    f9:cc:48:1f:01:96:84:d7:d8:7c:5b:db:2f:5f:c7:
                    b8:50:2b:30:a9:9b:ca:ea:88:5a:81:48:b1:b4:25:
                    93:54:17:ce:0c:14:5e:2d:2a:b5:bb:16:d3:14:5c:
                    33:f9:49:53:ba:0c:0b:5b:df:55:69:c7:46:85:39:
                    8b:64:f1
                Exponent: 65537 (0x10001)
        X509v3 extensions:
            X509v3 Basic Constraints: 
                CA:FALSE
            Netscape Comment: 
                OpenSSL Generated Certificate
            X509v3 Subject Key Identifier: 
                81:C2:95:9F:A5:D3:6A:5C:62:41:40:3D:7F:9D:CF:2E:9F:83:33:DF
            X509v3 Authority Key Identifier: 
                keyid:24:38:68:73:A8:26:C9:E6:5B:A5:0B:E8:4C:2B:50:0F:A0:05:A3:A4

    Signature Algorithm: sha256WithRSAEncryption
         b5:de:6e:0d:c6:83:56:d6:02:f8:f1:c2:9d:64:d1:bb:00:94:
         0b:fd:57:6a:2b:15:bb:08:78:e5:a2:12:06:b4:ad:43:0c:7d:
         29:9f:b1:b7:9f:ca:66:39:1a:90:16:9c:d8:ab:6a:ba:36:18:
         c2:12:01:d8:6e:0f:32:19:86:45:43:ae:ba:71:bd:aa:05:5a:
         b4:4b:1c:01:3f:cb:60:ca:37:d4:cb:89:9f:8e:d5:ae:f0:4e:
         90:9f:3a:4d:42:6b:64:ba:78:6e:38:62:f3:cd:75:dd:69:74:
         53:b2:e2:88:70:56:8c:d4:fb:0b:ca:72:d5:86:19:c6:d8:36:
         ec:44:8d:cc:2e:e3:b4:5c:13:31:14:ca:7d:a2:a2:26:02:18:
         89:b3:c1:01:ae:4a:43:f7:00:36:33:cd:64:b4:e6:f4:37:d3:
         0e:71:cb:35:88:d2:16:62:bd:a6:c2:1d:db:cb:5d:ea:a3:57:
         c6:5e:3d:4e:9a:7b:9d:81:b5:b2:c2:1f:26:ce:a4:f3:ac:83:
         0a:d1:c1:bf:6b:ce:e3:3e:b4:f9:6f:da:3d:9c:4f:07:2e:12:
         c5:d6:d1:a8:d1:b0:ff:63:00:e6:3a:47:4e:3e:e1:c3:5a:39:
         e3:25:02:ff:59:9c:57:79:11:be:35:b9:18:12:c3:cd:ca:f0:
         a2:3c:7f:46:dd:22:1b:3e:7d:ed:b6:6e:b8:29:ff:49:d5:da:
         a1:f3:19:08:5a:b5:2f:d2:29:07:9d:28:c2:8d:e0:44:9b:01:
         c9:35:4c:ed:49:91:84:4f:7e:78:c1:c9:39:a3:8a:7d:ad:be:
         3b:02:82:1a:cb:36:32:21:b0:09:ef:03:c0:48:d4:d2:52:a6:
         ec:3f:ba:ef:8d:e9:3d:1a:30:58:63:48:19:e4:b3:5c:46:c0:
         30:2e:96:74:cf:e3:c0:f4:ff:3f:0b:4b:2c:7a:5c:95:57:b3:
         de:7a:41:d4:8c:fc:41:ad:74:f6:01:e7:eb:27:7c:51:71:63:
         ff:91:af:a2:25:5c:3b:e9:5e:41:d5:d4:7c:29:b0:2b:a8:86:
         2c:bc:f7:8e:37:85:9b:6f:45:50:cb:c4:0e:d5:b7:b5:f2:b3:
         f2:2d:b3:92:0f:94:b2:e9:73:38:38:e9:8f:88:f9:f5:b7:20:
         4b:4f:81:a4:de:43:41:38:ff:5f:e3:25:cd:93:db:90:8a:2e:
         9a:bf:90:49:97:ab:b9:89:7e:45:0e:08:2b:e9:bd:13:af:c8:
         5b:75:58:a0:ad:06:b6:5a:fa:91:48:c2:1c:a5:7d:9a:34:21:
         26:fc:b3:8a:50:f6:65:65:1f:5c:71:d1:11:45:a0:30:56:c3:
         09:d4:11:f5:b5:35:c1:06
-----BEGIN CERTIFICATE-----
MIIFTDCCAzSgAwIBAgIEEjRWiTANBgkqhkiG9w0BAQsFADAnMSUwIwYDVQQDDBxT
UksyX3NoYTI1Nl80MDk2XzY1NTM3X3YzX2NhMCAXDTE5MDUyMjA5NTY0M1oYDzIx
MTkwNDI4MDk1NjQzWjAqMSgwJgYDVQQDDB9JTUcyXzFfc2hhMjU2XzQwOTZfNjU1
MzdfdjNfdXNyMIICIjANBgkqhkiG9w0BAQEFAAOCAg8AMIICCgKCAgEA70MB37hz
QiiXNzigkN888hQzXAydmXVl7hdnmIMw9M3GeBmke0LIMMw/jkGItcWMQUYWmL2o
1Wn6Hp49A5lxoynhBqIh3HPwUG2WeEPDMnJBfRExMfvId6I7B/3fYpZt8CUrRIhp
NbpbHwhtntV+8F9m62YJ/J/LKpOz+05Ib4UaUjC4579j4PBAgwfdA3YqgSl0CcTI
xImdkKA14nxKWflzTox63e+lJ25Ivvq2BkjdoGVZy4VUbGJkfBHx3FKtDz8k1sSF
+1U6XODseZBIgv2QYHlTxfYqQJVEGFB/Ee9FEskCewAd3sVitk7thulLRnEV+eyJ
vCFjwxAF++hMuLn+jsoK1yZV7ihA+/G+MXSlICStruTII5gkjQQQb2fawzEcIDi0
jD9nmZbiOS2qD4tl85JNiYssmyijo9i1bZkaa+x/9DaTaSQc8pxetntzTk8Cpizn
MepSVln0IVi1rNA+ltsCkUXyykl6mnABl1ka3i2vXA1paHKDn/wzQKbUCWxdMWVs
l4RUvpJbetItX77t60zV+mKBCc9BeT/plT1Ai1//Hr1Q3SqmEJPrWwXoMKMBwXs3
syctjmg3LNltNl35zEgfAZaE19h8W9svX8e4UCswqZvK6ohagUixtCWTVBfODBRe
LSq1uxbTFFwz+UlTugwLW99VacdGhTmLZPECAwEAAaN7MHkwCQYDVR0TBAIwADAs
BglghkgBhvhCAQ0EHxYdT3BlblNTTCBHZW5lcmF0ZWQgQ2VydGlmaWNhdGUwHQYD
VR0OBBYEFIHClZ+l02pcYkFAPX+dzy6fgzPfMB8GA1UdIwQYMBaAFCQ4aHOoJsnm
W6UL6EwrUA+gBaOkMA0GCSqGSIb3DQEBCwUAA4ICAQC13m4NxoNW1gL48cKdZNG7
AJQL/VdqKxW7CHjlohIGtK1DDH0pn7G3n8pmORqQFpzYq2q6NhjCEgHYbg8yGYZF
Q666cb2qBVq0SxwBP8tgyjfUy4mfjtWu8E6QnzpNQmtkunhuOGLzzXXdaXRTsuKI
cFaM1PsLynLVhhnG2DbsRI3MLuO0XBMxFMp9oqImAhiJs8EBrkpD9wA2M81ktOb0
N9MOccs1iNIWYr2mwh3by13qo1fGXj1OmnudgbWywh8mzqTzrIMK0cG/a87jPrT5
b9o9nE8HLhLF1tGo0bD/YwDmOkdOPuHDWjnjJQL/WZxXeRG+NbkYEsPNyvCiPH9G
3SIbPn3ttm64Kf9J1dqh8xkIWrUv0ikHnSjCjeBEmwHJNUztSZGET354wck5o4p9
rb47AoIayzYyIbAJ7wPASNTSUqbsP7rvjek9GjBYY0gZ5LNcRsAwLpZ0z+PA9P8/
C0sselyVV7PeekHUjPxBrXT2AefrJ3xRcWP/ka+iJVw76V5B1dR8KbArqIYsvPeO
N4Wbb0VQy8QO1be18rPyLbOSD5Sy6XM4OOmPiPn1tyBLT4Gk3kNBOP9f4yXNk9uQ
ii6av5BJl6u5iX5FDggr6b0Tr8hbdVigrQa2WvqRSMIcpX2aNCEm/LOKUPZlZR9c
cdERRaAwVsMJ1BH1tTXBBg==
-----END CERTIFICATE-----
