Certificate:
    Data:
        Version: 3 (0x2)
        Serial Number: 305419911 (0x12345687)
        Signature Algorithm: sha256WithRSAEncryption
        Issuer: CN=CA1_sha256_4096_65537_v3_ca
        Validity
            Not Before: May 22 09:56:42 2019 GMT
            Not After : Apr 28 09:56:42 2119 GMT
        Subject: CN=SRK2_sha256_4096_65537_v3_ca
        Subject Public Key Info:
            Public Key Algorithm: rsaEncryption
                RSA Public-Key: (4096 bit)
                Modulus:
                    00:c5:4e:da:20:77:44:e9:c8:4b:5a:bc:90:a2:74:
                    cc:e2:de:5c:b7:6f:91:e0:2b:6c:09:3b:bf:fb:e7:
                    78:26:15:f3:00:9c:59:2a:fb:2c:a3:80:6b:1d:d1:
                    33:9d:88:66:70:86:02:30:17:d2:9a:d6:2b:df:45:
                    25:75:08:f2:ad:1f:39:12:19:79:e5:ca:88:4e:f4:
                    6a:e6:87:ea:a5:65:1c:a7:28:f3:c0:62:79:ab:47:
                    64:2e:ec:62:3e:ac:59:fc:11:75:a1:5d:32:aa:c4:
                    3a:4c:ba:af:a6:54:0d:6e:5e:d4:3d:45:c1:b0:ac:
                    95:c6:1f:cd:40:3e:ce:34:70:41:c7:65:eb:45:7c:
                    fe:99:b4:34:d2:eb:1a:06:bd:2a:81:5b:33:60:6c:
                    eb:bb:d8:de:a3:79:12:a3:d9:4a:f0:ea:00:e8:b4:
                    af:6e:20:32:51:c3:62:be:67:8e:ad:be:ab:5b:2c:
                    4d:f5:98:bf:c2:58:2a:12:42:f6:f8:6e:24:42:d9:
                    6d:71:6d:94:42:a9:80:3f:11:ab:38:07:45:37:b5:
                    4f:27:91:db:0a:c8:92:09:ca:31:1b:4c:c8:d7:57:
                    d7:36:f2:da:2e:28:14:d4:20:c2:f5:c4:bf:69:16:
                    03:a4:41:a6:ba:c2:83:d2:a3:c4:fe:39:9b:f5:60:
                    d4:26:cd:f7:f1:23:b0:a2:3f:23:f8:1b:8e:c7:fe:
                    82:2a:a3:f4:b4:46:75:ec:0b:44:4b:49:57:89:3d:
                    5f:b3:72:9d:b4:aa:f4:2f:60:cf:39:2f:0d:30:0f:
                    89:23:0f:35:85:85:e2:35:7c:78:3a:e1:5c:a9:71:
                    ac:af:32:f0:7c:25:0a:07:a2:27:c2:f1:91:38:4e:
                    25:f2:f3:c3:87:76:2a:4f:51:d5:b1:88:65:ea:de:
                    67:e0:7b:90:5a:b5:eb:11:ef:7d:99:1f:40:c8:92:
                    a7:45:d9:86:fd:47:3e:2f:37:03:23:d3:22:52:f7:
                    ed:a0:ee:0c:7d:2a:c4:b9:04:93:fa:bf:a7:30:0d:
                    4a:e3:4d:68:20:7c:cb:a6:a6:0f:91:79:5f:71:4a:
                    45:9c:69:21:26:ec:cf:89:53:ad:4c:76:2f:d7:6a:
                    e0:8c:46:3d:c3:c0:f5:ff:4b:54:a4:12:f3:e1:c4:
                    3b:9b:f7:c2:c9:48:d2:23:4f:0a:0d:79:59:77:2f:
                    f0:64:0a:1d:4f:ac:63:6c:2f:52:8d:81:df:91:a5:
                    d6:c5:eb:81:b8:09:4b:77:4c:99:c3:dc:20:08:81:
                    aa:11:b0:3e:57:9a:85:78:ce:9c:82:ec:c3:85:ed:
                    7d:b7:01:42:e0:dd:9d:67:6a:45:94:8c:b6:60:73:
                    5e:7e:57
                Exponent: 65537 (0x10001)
        X509v3 extensions:
            X509v3 Subject Key Identifier: 
                24:38:68:73:A8:26:C9:E6:5B:A5:0B:E8:4C:2B:50:0F:A0:05:A3:A4
            X509v3 Authority Key Identifier: 
                keyid:4C:BA:9D:9E:56:78:11:B2:66:EA:EA:5D:FA:8A:28:6F:B9:EC:6D:73
                DirName:/CN=CA1_sha256_4096_65537_v3_ca
                serial:7B:1B:2F:2F:C3:AB:50:73:23:EE:A7:D9:45:41:71:B6:EB:BA:5D:A8

            X509v3 Basic Constraints: critical
                CA:TRUE
            X509v3 Key Usage: 
                Certificate Sign
    Signature Algorithm: sha256WithRSAEncryption
         92:92:55:7f:d7:24:d0:a1:12:b8:9e:2c:01:66:40:94:e1:c8:
         78:88:5b:ba:8a:25:2e:71:d3:72:4a:15:e1:cc:8d:08:87:50:
         a0:b9:6a:6f:6d:55:5d:29:bf:c4:29:eb:99:27:fd:a1:5a:52:
         0c:03:67:bd:7f:53:5c:c7:e4:59:22:44:d0:be:e2:a9:fc:58:
         55:d1:1c:94:88:98:25:2e:48:18:53:d1:24:1e:30:d3:49:bb:
         71:46:c6:2e:f1:a8:21:ef:84:51:01:15:7c:7b:4f:27:b6:49:
         9a:a6:10:61:b9:c2:1a:35:b7:db:e8:e8:16:b0:3b:98:6d:ca:
         f0:d0:66:bd:9d:bc:d7:90:d9:50:22:d6:de:df:9c:43:59:74:
         8e:1a:58:e3:45:31:8c:e4:56:04:66:0b:c2:fc:b6:4e:33:77:
         4f:92:06:a4:55:80:7f:dc:84:71:49:5d:fd:1f:59:00:21:a4:
         5e:d2:ee:fd:b3:4e:36:4d:51:3b:96:a8:28:3e:f2:c9:ec:bd:
         47:d0:9d:43:db:53:b0:42:44:bf:f7:a5:9d:85:5d:d7:c8:6c:
         26:e8:80:69:08:ab:95:8d:bf:c1:db:cb:01:49:04:03:be:5b:
         28:8c:d7:93:b9:43:38:89:af:28:92:51:fb:6d:4d:90:83:a8:
         e3:34:3e:fa:b6:8a:b5:ac:3c:11:c9:96:81:67:e5:84:05:f7:
         10:a6:f2:29:18:68:da:68:ae:50:50:1e:92:f5:f8:fa:68:54:
         b8:2f:93:aa:18:d2:4f:62:b0:1b:7b:3b:5c:0d:0f:4a:b2:b7:
         d0:ec:4a:ae:ae:e0:8b:c6:ec:78:8b:f3:77:47:30:8d:35:4c:
         10:a3:9f:8d:ff:28:f2:7a:f0:0c:b2:8a:7e:54:1b:46:12:6e:
         3e:f2:94:da:46:9a:88:7a:ff:f9:14:5a:75:f1:99:f6:b9:47:
         3d:58:fa:91:03:49:07:b9:94:f1:e8:2b:18:45:02:5d:80:35:
         18:8c:9a:9d:cd:6f:cf:e6:c2:af:47:5a:6f:9e:61:de:8d:09:
         36:d6:00:a8:47:29:a7:b6:f6:06:3a:53:8f:0e:9c:75:fa:fd:
         e2:36:15:24:35:9c:48:3a:79:f8:c4:b6:99:82:67:e3:8e:81:
         73:a8:c2:6c:14:47:35:cb:f0:4b:9f:aa:34:89:3f:80:cb:ef:
         c8:17:e5:7b:39:9a:2d:6f:b1:91:e9:3c:d3:45:97:41:24:a1:
         7f:10:cc:d9:bc:64:0b:f4:61:52:d0:8a:66:b1:36:82:53:35:
         c8:3b:6d:f9:e8:31:c5:24:1f:9e:25:60:e2:72:93:85:5d:21:
         6d:6f:18:ad:8b:3d:d9:7d
-----BEGIN CERTIFICATE-----
MIIFcTCCA1mgAwIBAgIEEjRWhzANBgkqhkiG9w0BAQsFADAmMSQwIgYDVQQDFBtD
QTFfc2hhMjU2XzQwOTZfNjU1MzdfdjNfY2EwIBcNMTkwNTIyMDk1NjQyWhgPMjEx
OTA0MjgwOTU2NDJaMCcxJTAjBgNVBAMMHFNSSzJfc2hhMjU2XzQwOTZfNjU1Mzdf
djNfY2EwggIiMA0GCSqGSIb3DQEBAQUAA4ICDwAwggIKAoICAQDFTtogd0TpyEta
vJCidMzi3ly3b5HgK2wJO7/753gmFfMAnFkq+yyjgGsd0TOdiGZwhgIwF9Ka1ivf
RSV1CPKtHzkSGXnlyohO9Grmh+qlZRynKPPAYnmrR2Qu7GI+rFn8EXWhXTKqxDpM
uq+mVA1uXtQ9RcGwrJXGH81APs40cEHHZetFfP6ZtDTS6xoGvSqBWzNgbOu72N6j
eRKj2Urw6gDotK9uIDJRw2K+Z46tvqtbLE31mL/CWCoSQvb4biRC2W1xbZRCqYA/
Eas4B0U3tU8nkdsKyJIJyjEbTMjXV9c28touKBTUIML1xL9pFgOkQaa6woPSo8T+
OZv1YNQmzffxI7CiPyP4G47H/oIqo/S0RnXsC0RLSVeJPV+zcp20qvQvYM85Lw0w
D4kjDzWFheI1fHg64VypcayvMvB8JQoHoifC8ZE4TiXy88OHdipPUdWxiGXq3mfg
e5BatesR732ZH0DIkqdF2Yb9Rz4vNwMj0yJS9+2g7gx9KsS5BJP6v6cwDUrjTWgg
fMumpg+ReV9xSkWcaSEm7M+JU61Mdi/XauCMRj3DwPX/S1SkEvPhxDub98LJSNIj
TwoNeVl3L/BkCh1PrGNsL1KNgd+RpdbF64G4CUt3TJnD3CAIgaoRsD5XmoV4zpyC
7MOF7X23AULg3Z1nakWUjLZgc15+VwIDAQABo4GjMIGgMB0GA1UdDgQWBBQkOGhz
qCbJ5lulC+hMK1APoAWjpDBhBgNVHSMEWjBYgBRMup2eVngRsmbq6l36iihvuext
c6EqpCgwJjEkMCIGA1UEAxQbQ0ExX3NoYTI1Nl80MDk2XzY1NTM3X3YzX2NhghR7
Gy8vw6tQcyPup9lFQXG267pdqDAPBgNVHRMBAf8EBTADAQH/MAsGA1UdDwQEAwIC
BDANBgkqhkiG9w0BAQsFAAOCAgEAkpJVf9ck0KESuJ4sAWZAlOHIeIhbuoolLnHT
ckoV4cyNCIdQoLlqb21VXSm/xCnrmSf9oVpSDANnvX9TXMfkWSJE0L7iqfxYVdEc
lIiYJS5IGFPRJB4w00m7cUbGLvGoIe+EUQEVfHtPJ7ZJmqYQYbnCGjW32+joFrA7
mG3K8NBmvZ2815DZUCLW3t+cQ1l0jhpY40UxjORWBGYLwvy2TjN3T5IGpFWAf9yE
cUld/R9ZACGkXtLu/bNONk1RO5aoKD7yyey9R9CdQ9tTsEJEv/elnYVd18hsJuiA
aQirlY2/wdvLAUkEA75bKIzXk7lDOImvKJJR+21NkIOo4zQ++raKtaw8EcmWgWfl
hAX3EKbyKRho2miuUFAekvX4+mhUuC+TqhjST2KwG3s7XA0PSrK30OxKrq7gi8bs
eIvzd0cwjTVMEKOfjf8o8nrwDLKKflQbRhJuPvKU2kaaiHr/+RRadfGZ9rlHPVj6
kQNJB7mU8egrGEUCXYA1GIyanc1vz+bCr0dab55h3o0JNtYAqEcpp7b2BjpTjw6c
dfr94jYVJDWcSDp5+MS2mYJn446Bc6jCbBRHNcvwS5+qNIk/gMvvyBflezmaLW+x
kek800WXQSShfxDM2bxkC/RhUtCKZrE2glM1yDtt+egxxSQfniVg4nKThV0hbW8Y
rYs92X0=
-----END CERTIFICATE-----
