Certificate:
    Data:
        Version: 3 (0x2)
        Serial Number: 305419898 (0x1234567a)
        Signature Algorithm: ecdsa-with-SHA256
        Issuer: CN=CA1_sha256_secp256r1_v3_ca
        Validity
            Not Before: Oct 14 22:06:16 2024 GMT
            Not After : Sep 20 22:06:16 2124 GMT
        Subject: CN=SRK3_sha256_secp256r1_v3_usr
        Subject Public Key Info:
            Public Key Algorithm: id-ecPublicKey
                Public-Key: (256 bit)
                pub:
                    04:97:3a:e8:8b:04:6a:8b:68:68:b5:e4:e9:25:9b:
                    58:b6:6f:1b:90:e2:47:f8:16:43:43:f8:8a:94:35:
                    07:1a:15:82:89:a7:92:37:b5:c6:4f:75:0a:c6:33:
                    c3:a8:35:b3:40:11:b4:2d:a0:8f:6f:54:71:3e:f3:
                    be:1f:ca:eb:d7
                ASN1 OID: prime256v1
                NIST CURVE: P-256
        X509v3 extensions:
            X509v3 Basic Constraints: 
                CA:FALSE
            Netscape Comment: 
                OpenSSL Generated Certificate
            X509v3 Subject Key Identifier: 
                B6:5A:80:D5:52:E1:45:05:57:4B:91:F0:6C:51:68:45:65:F7:0D:EC
            X509v3 Authority Key Identifier: 
                BD:68:FC:E4:E7:4F:6C:2E:CE:52:B8:DB:1F:FB:96:A2:22:02:EA:85
    Signature Algorithm: ecdsa-with-SHA256
    Signature Value:
        30:45:02:20:4b:44:cf:ff:ab:28:ff:1e:86:78:23:f8:ca:a4:
        5f:ea:af:87:db:f1:75:9a:2d:ed:9d:42:d4:2f:ed:23:0a:91:
        02:21:00:f0:3d:db:29:51:96:1e:78:4f:bb:83:8f:74:b6:0f:
        0f:37:5f:35:7f:cc:a6:ce:30:26:d7:2c:45:88:c8:82:16
-----BEGIN CERTIFICATE-----
MIIBuzCCAWGgAwIBAgIEEjRWejAKBggqhkjOPQQDAjAlMSMwIQYDVQQDFBpDQTFf
c2hhMjU2X3NlY3AyNTZyMV92M19jYTAgFw0yNDEwMTQyMjA2MTZaGA8yMTI0MDky
MDIyMDYxNlowJzElMCMGA1UEAwwcU1JLM19zaGEyNTZfc2VjcDI1NnIxX3YzX3Vz
cjBZMBMGByqGSM49AgEGCCqGSM49AwEHA0IABJc66IsEaotoaLXk6SWbWLZvG5Di
R/gWQ0P4ipQ1BxoVgomnkje1xk91CsYzw6g1s0ARtC2gj29UcT7zvh/K69ejezB5
MAkGA1UdEwQCMAAwLAYJYIZIAYb4QgENBB8WHU9wZW5TU0wgR2VuZXJhdGVkIENl
cnRpZmljYXRlMB0GA1UdDgQWBBS2WoDVUuFFBVdLkfBsUWhFZfcN7DAfBgNVHSME
GDAWgBS9aPzk509sLs5SuNsf+5aiIgLqhTAKBggqhkjOPQQDAgNIADBFAiBLRM//
qyj/HoZ4I/jKpF/qr4fb8XWaLe2dQtQv7SMKkQIhAPA92ylRlh54T7uDj3S2Dw83
XzV/zKbOMCbXLEWIyIIW
-----END CERTIFICATE-----
