Certificate:
    Data:
        Version: 3 (0x2)
        Serial Number: 305419896 (0x12345678)
        Signature Algorithm: sha256WithRSAEncryption
        Issuer: CN=CA1_sha256_4096_65537_v3_ca
        Validity
            Not Before: Apr 20 15:07:39 2026 GMT
            Not After : Mar 27 15:07:39 2126 GMT
        Subject: CN=SRK1_sha256_4096_65537_v3_usr
        Subject Public Key Info:
            Public Key Algorithm: rsaEncryption
                Public-Key: (4096 bit)
                Modulus:
                    00:9d:1e:9f:65:16:65:88:3e:56:ce:c9:52:f9:71:
                    c6:2d:ac:2f:fa:15:79:97:23:0f:11:0e:ac:db:f9:
                    d6:2b:e7:aa:6c:3d:57:c2:bc:fb:03:d5:d7:a0:73:
                    51:c0:27:96:61:79:6d:9f:72:ff:f1:bd:75:29:4e:
                    7b:64:7c:67:79:46:97:8f:bb:d4:6d:33:1f:36:32:
                    e4:58:a5:72:ff:99:7f:bf:71:e6:07:2f:92:0d:12:
                    fe:b5:c3:2d:73:6f:eb:90:a1:f5:10:0e:48:73:66:
                    e0:ae:b2:b9:10:7c:c1:57:3b:8a:07:1f:1a:3c:a5:
                    3d:25:e2:ef:d4:62:48:90:04:a5:23:8d:bc:57:b9:
                    b6:00:f7:78:f9:38:90:f3:d8:0b:95:56:da:13:60:
                    90:3d:18:b3:21:83:01:1c:a6:60:0f:0d:aa:d2:70:
                    76:43:52:0f:70:1e:2c:e3:2c:d2:9d:aa:0e:1b:ea:
                    73:89:78:8c:40:ba:b7:1f:02:d0:e5:c3:ff:2b:96:
                    6c:2c:6e:42:1b:ba:4e:0e:be:c4:46:ac:02:74:f9:
                    30:b7:7d:23:08:ad:14:1e:6d:27:cf:cc:11:f6:4f:
                    20:c2:c3:d7:f0:5e:ec:21:d6:2f:83:0b:9e:a4:6f:
                    ce:4e:98:bd:23:94:99:22:23:98:42:de:9c:09:f4:
                    c7:c9:67:14:0a:03:59:44:3e:b3:ff:bc:f5:bb:72:
                    34:f1:98:b3:19:ad:fe:f0:ee:a4:3b:b4:70:78:86:
                    6e:86:23:1a:25:11:f6:dc:aa:0b:80:f7:df:ef:a8:
                    48:8c:b1:59:45:5d:bd:9d:a3:f2:71:fb:83:a6:cc:
                    17:be:47:bc:09:94:cf:b9:90:59:2d:ca:3b:5d:b7:
                    62:0a:0c:6b:43:16:fa:9f:79:00:48:0f:7e:16:fb:
                    d3:a4:f9:9a:48:4a:23:c8:24:db:c9:c1:cc:4f:9a:
                    5e:30:f9:df:f0:08:a1:49:b7:1b:81:b0:ed:27:a4:
                    2f:4f:32:df:c9:ff:d1:9e:9f:96:4d:de:1b:d8:b2:
                    a5:84:ee:06:ae:25:63:77:83:f0:48:f8:ec:d2:09:
                    b1:bb:6c:15:05:df:6b:b9:00:63:6f:93:61:7f:fa:
                    7e:ed:46:86:48:25:0a:84:6b:f0:d7:f8:bd:6a:ca:
                    95:b1:7e:53:3c:fb:b4:c5:0b:8b:76:9c:c4:d3:47:
                    94:f5:4e:62:64:07:64:7d:57:28:30:85:74:08:90:
                    3c:3b:8a:48:63:92:b5:98:d5:c7:01:cb:bd:1c:62:
                    f0:de:20:5b:68:a8:d4:ac:10:b1:8e:9c:4e:74:16:
                    92:9d:2d:74:4c:ed:a7:fe:e1:20:a9:17:b4:19:88:
                    74:d5:b3
                Exponent: 65537 (0x10001)
        X509v3 extensions:
            X509v3 Basic Constraints: 
                CA:FALSE
            Netscape Comment: 
                OpenSSL Generated Certificate
            X509v3 Subject Key Identifier: 
                45:94:BE:DE:EC:A2:CC:26:2E:13:61:F7:9B:B3:E6:53:F3:AE:8D:58
            X509v3 Authority Key Identifier: 
                92:D6:FC:89:01:72:F0:D7:44:D5:C3:31:8F:86:D8:B2:AD:C2:93:55
    Signature Algorithm: sha256WithRSAEncryption
    Signature Value:
        09:ab:8b:d9:9f:83:35:7d:65:e9:b6:f3:2b:93:91:66:e7:dc:
        7e:18:3c:50:ad:92:dd:27:76:46:e6:65:83:02:94:ad:ef:e4:
        2c:0c:28:b9:f7:b9:5f:71:84:79:1e:23:cd:d5:e5:98:6c:b5:
        2b:8a:be:5a:4b:9f:77:5a:ba:1f:d7:d0:33:02:50:b4:fd:76:
        8b:24:ad:0c:fd:fc:08:8d:7f:b6:0d:a5:e2:68:60:4a:ec:6d:
        11:c1:e6:49:3e:82:9d:3e:4d:eb:ce:79:af:d2:c7:f9:0f:9e:
        50:1b:e3:6d:e0:08:b1:f3:ca:da:bf:62:68:1f:be:2a:6a:1b:
        37:f4:1b:4f:fd:a0:6c:5f:72:8f:18:ce:4c:aa:41:70:a7:ae:
        a7:a2:db:de:7e:2c:31:90:2a:dc:5b:8a:4e:8b:d1:bb:30:a9:
        05:3e:34:8b:f7:ed:7b:dc:fd:5b:e4:9f:99:a9:17:42:88:65:
        90:5b:eb:b2:4a:2c:95:ce:5a:59:d9:ca:5f:0e:59:48:d3:b8:
        86:5b:d5:17:b2:c7:8b:6b:ff:f9:de:68:62:79:21:24:63:af:
        80:d2:51:ba:1a:5c:71:cc:3b:7c:21:04:93:19:35:da:c9:d0:
        9d:0f:4f:1d:71:c0:00:89:2e:7a:11:4f:51:77:51:82:97:ad:
        62:ff:60:ab:a2:af:b2:a1:be:23:c0:84:e3:3f:93:06:93:48:
        76:a8:f5:ea:d8:27:28:87:51:0c:da:c0:36:da:73:20:5d:23:
        e1:8c:4f:18:cd:fb:4a:96:c6:e4:0a:cb:08:65:98:e5:81:5e:
        3d:11:f4:89:ac:09:08:c7:a8:5b:1e:8c:53:86:76:ce:8b:0f:
        dd:d3:c2:46:ca:ef:56:29:0a:a5:ea:1a:b3:4c:f9:3e:ad:21:
        94:ef:a7:6c:39:33:09:c5:34:54:6e:e5:86:ac:6a:31:13:51:
        1d:f9:cf:60:83:36:25:10:8e:aa:97:65:a0:37:72:ce:78:a7:
        57:d0:48:32:98:48:f9:d6:92:e3:cf:5a:37:83:54:d9:7e:80:
        3b:c0:62:7c:a1:2c:04:96:af:1f:ba:43:37:c4:ca:5d:72:58:
        c5:58:0a:7d:cd:39:f6:43:2e:c5:c2:9d:16:87:4b:90:c0:44:
        9c:af:10:a7:fa:f1:28:89:50:57:e6:cb:27:4d:c2:79:e2:6c:
        88:9c:08:3d:8f:cc:00:73:20:fd:f1:5f:ec:b8:e5:5a:14:92:
        54:1a:07:fd:df:22:71:e1:1f:7d:e6:f9:dd:ec:bf:6f:52:a6:
        d1:35:6f:98:1f:9e:ac:2f:a9:4f:a7:43:06:8f:f4:b2:dd:ba:
        3d:50:77:08:b3:ed:97:97
-----BEGIN CERTIFICATE-----
MIIFSTCCAzGgAwIBAgIEEjRWeDANBgkqhkiG9w0BAQsFADAmMSQwIgYDVQQDFBtD
QTFfc2hhMjU2XzQwOTZfNjU1MzdfdjNfY2EwIBcNMjYwNDIwMTUwNzM5WhgPMjEy
NjAzMjcxNTA3MzlaMCgxJjAkBgNVBAMMHVNSSzFfc2hhMjU2XzQwOTZfNjU1Mzdf
djNfdXNyMIICIjANBgkqhkiG9w0BAQEFAAOCAg8AMIICCgKCAgEAnR6fZRZliD5W
zslS+XHGLawv+hV5lyMPEQ6s2/nWK+eqbD1Xwrz7A9XXoHNRwCeWYXltn3L/8b11
KU57ZHxneUaXj7vUbTMfNjLkWKVy/5l/v3HmBy+SDRL+tcMtc2/rkKH1EA5Ic2bg
rrK5EHzBVzuKBx8aPKU9JeLv1GJIkASlI428V7m2APd4+TiQ89gLlVbaE2CQPRiz
IYMBHKZgDw2q0nB2Q1IPcB4s4yzSnaoOG+pziXiMQLq3HwLQ5cP/K5ZsLG5CG7pO
Dr7ERqwCdPkwt30jCK0UHm0nz8wR9k8gwsPX8F7sIdYvgwuepG/OTpi9I5SZIiOY
Qt6cCfTHyWcUCgNZRD6z/7z1u3I08ZizGa3+8O6kO7RweIZuhiMaJRH23KoLgPff
76hIjLFZRV29naPycfuDpswXvke8CZTPuZBZLco7XbdiCgxrQxb6n3kASA9+FvvT
pPmaSEojyCTbycHMT5peMPnf8AihSbcbgbDtJ6QvTzLfyf/Rnp+WTd4b2LKlhO4G
riVjd4PwSPjs0gmxu2wVBd9ruQBjb5Nhf/p+7UaGSCUKhGvw1/i9asqVsX5TPPu0
xQuLdpzE00eU9U5iZAdkfVcoMIV0CJA8O4pIY5K1mNXHAcu9HGLw3iBbaKjUrBCx
jpxOdBaSnS10TO2n/uEgqRe0GYh01bMCAwEAAaN7MHkwCQYDVR0TBAIwADAsBglg
hkgBhvhCAQ0EHxYdT3BlblNTTCBHZW5lcmF0ZWQgQ2VydGlmaWNhdGUwHQYDVR0O
BBYEFEWUvt7soswmLhNh95uz5lPzro1YMB8GA1UdIwQYMBaAFJLW/IkBcvDXRNXD
MY+G2LKtwpNVMA0GCSqGSIb3DQEBCwUAA4ICAQAJq4vZn4M1fWXptvMrk5Fm59x+
GDxQrZLdJ3ZG5mWDApSt7+QsDCi597lfcYR5HiPN1eWYbLUrir5aS593Wrof19Az
AlC0/XaLJK0M/fwIjX+2DaXiaGBK7G0RweZJPoKdPk3rznmv0sf5D55QG+Nt4Aix
88rav2JoH74qahs39BtP/aBsX3KPGM5MqkFwp66notvefiwxkCrcW4pOi9G7MKkF
PjSL9+173P1b5J+ZqRdCiGWQW+uySiyVzlpZ2cpfDllI07iGW9UXsseLa//53mhi
eSEkY6+A0lG6GlxxzDt8IQSTGTXaydCdD08dccAAiS56EU9Rd1GCl61i/2Croq+y
ob4jwITjP5MGk0h2qPXq2Ccoh1EM2sA22nMgXSPhjE8YzftKlsbkCssIZZjlgV49
EfSJrAkIx6hbHoxThnbOiw/d08JGyu9WKQql6hqzTPk+rSGU76dsOTMJxTRUbuWG
rGoxE1Ed+c9ggzYlEI6ql2WgN3LOeKdX0EgymEj51pLjz1o3g1TZfoA7wGJ8oSwE
lq8fukM3xMpdcljFWAp9zTn2Qy7Fwp0Wh0uQwEScrxCn+vEoiVBX5ssnTcJ54myI
nAg9j8wAcyD98V/suOVaFJJUGgf93yJx4R995vnd7L9vUqbRNW+YH56sL6lPp0MG
j/Sy3bo9UHcIs+2Xlw==
-----END CERTIFICATE-----
