Certificate:
    Data:
        Version: 3 (0x2)
        Serial Number: 305419897 (0x12345679)
        Signature Algorithm: sha256WithRSAEncryption
        Issuer: CN=CA1_sha256_4096_65537_v3_ca
        Validity
            Not Before: Apr 20 15:07:40 2026 GMT
            Not After : Mar 27 15:07:40 2126 GMT
        Subject: CN=SRK2_sha256_4096_65537_v3_usr
        Subject Public Key Info:
            Public Key Algorithm: rsaEncryption
                Public-Key: (4096 bit)
                Modulus:
                    00:90:13:1d:b3:da:73:45:1d:97:67:80:64:9d:f7:
                    c7:b3:4e:cd:24:61:98:18:d6:ff:94:de:5f:83:66:
                    c6:8c:04:7f:e5:f0:0d:29:c3:98:c2:16:07:e7:e1:
                    ef:25:a6:30:d2:fc:c6:fc:06:76:94:08:11:a7:d7:
                    03:a7:ff:b1:74:c1:89:97:80:5f:d8:98:4f:7e:b4:
                    60:81:98:27:18:45:55:89:07:70:d4:22:c0:7f:44:
                    4e:3a:93:31:dd:38:fe:04:df:15:9d:ce:ff:fd:d2:
                    94:0a:69:90:64:0c:35:cd:e0:ff:9f:e7:0a:5b:80:
                    68:2f:d0:cf:c8:ec:ff:6b:be:6a:77:07:35:48:39:
                    1b:1e:f0:b8:ef:8d:04:7f:dd:4d:93:19:fa:d5:d3:
                    8f:80:f3:ea:23:09:60:0c:8f:2a:a4:69:a2:53:36:
                    f0:b6:fa:db:17:f6:fd:5b:77:64:94:41:a8:e2:c9:
                    76:83:4c:4f:90:cd:8f:99:0c:28:e6:73:f1:0c:d4:
                    4d:2b:ea:ce:25:8b:92:cb:11:c2:54:2f:0f:80:7d:
                    81:cb:93:3e:6e:80:25:39:15:e8:d9:59:a7:73:3f:
                    4a:c0:0f:d8:c3:74:a1:24:37:b6:c2:dc:03:d7:9e:
                    70:f4:5c:5c:68:d9:a7:bd:bd:9a:dd:a8:64:1c:cb:
                    cd:88:70:3d:19:e5:9c:59:bb:06:f8:4b:c1:7e:9e:
                    ec:1c:63:1f:44:a3:54:49:12:f3:73:d5:86:dd:60:
                    8d:80:c5:00:41:29:6b:6b:9b:91:c8:aa:b4:d9:a6:
                    ef:17:89:8a:59:96:f7:92:d9:82:59:6c:89:04:d6:
                    12:5d:dd:70:26:46:47:17:ac:60:c0:2d:f9:e0:52:
                    90:f5:10:a8:8b:1e:e0:e3:c8:54:2c:2b:93:5d:b7:
                    8a:0d:94:10:e3:e3:69:78:1a:d1:ca:9c:83:84:93:
                    ec:64:52:ce:59:a3:ce:92:07:36:53:d3:12:38:02:
                    af:3a:f3:f1:46:02:2f:69:06:1b:aa:a4:19:d4:9e:
                    74:25:cc:e6:dd:3a:35:2c:a4:4a:11:d8:17:45:2e:
                    0b:c9:01:c4:27:e0:bb:7e:44:21:db:01:f4:ba:75:
                    08:d5:79:87:00:b6:ff:11:f7:22:78:47:9d:68:1a:
                    e0:fa:8d:8e:09:13:5d:1b:d2:92:e2:41:ba:91:2c:
                    61:0c:64:62:9c:06:9a:39:18:4b:ba:56:eb:50:e0:
                    c8:92:85:2e:88:bd:7f:1d:b0:c3:77:a0:b3:5a:ca:
                    9a:1c:b5:6a:9f:26:e1:e8:59:da:37:5c:b6:f6:a7:
                    48:b8:15:1e:d0:a1:a4:3f:07:11:4a:7c:fc:83:f2:
                    1a:85:c5
                Exponent: 65537 (0x10001)
        X509v3 extensions:
            X509v3 Basic Constraints: 
                CA:FALSE
            Netscape Comment: 
                OpenSSL Generated Certificate
            X509v3 Subject Key Identifier: 
                58:40:BE:93:75:75:FE:03:DC:88:C4:81:2D:9A:F3:E8:4D:E0:08:90
            X509v3 Authority Key Identifier: 
                92:D6:FC:89:01:72:F0:D7:44:D5:C3:31:8F:86:D8:B2:AD:C2:93:55
    Signature Algorithm: sha256WithRSAEncryption
    Signature Value:
        6e:83:8c:48:a2:47:77:b6:f2:4c:4b:da:8d:d2:aa:69:2f:18:
        28:96:d8:a0:3a:ea:21:09:e9:b7:c1:bd:1c:63:07:84:30:b3:
        57:3c:51:a0:f1:78:82:65:7b:79:d0:54:8c:99:78:65:3d:2e:
        5e:7b:e0:48:77:4d:4e:a3:d4:1e:89:a3:b7:4d:65:19:1f:c6:
        9e:6c:43:2b:e9:1d:84:36:81:23:87:d6:a8:33:9b:e7:0c:3e:
        40:f2:43:f6:fd:69:17:1c:08:be:d7:be:56:10:0a:bd:37:04:
        c9:1d:e7:5b:a1:d8:a5:d9:b8:d8:46:27:30:24:1b:13:4f:74:
        be:0d:8c:52:0c:f2:fe:39:e4:57:79:c1:d9:e7:1d:53:0d:a3:
        98:8a:37:86:e9:7a:e6:df:4d:ad:06:ca:40:b5:31:86:38:72:
        a1:c9:47:22:79:2a:45:5c:45:0e:bd:26:15:f6:43:28:44:a8:
        26:f1:8e:e9:9d:0a:d3:bc:36:41:24:3c:7a:95:8a:a3:e8:e8:
        5e:6c:a2:03:f5:97:5d:76:a8:57:34:9a:28:19:0a:03:c3:45:
        d3:57:ae:85:5d:c8:20:0d:fd:bd:7f:2a:17:d1:69:42:e1:52:
        b7:67:02:e4:1a:eb:4a:4d:90:9d:0f:61:c4:ab:fd:a8:fd:f1:
        b5:ed:17:2a:a6:02:08:fa:2f:5d:0d:c4:f5:d1:2c:f7:da:06:
        fc:fa:6b:5f:b8:e8:41:37:81:ea:e9:9f:ea:9d:9e:ac:c6:5e:
        f1:87:cf:8d:3e:20:6e:5e:9e:ad:e9:e2:f5:e5:cd:f3:89:58:
        b1:cc:f1:92:94:29:85:11:13:dc:ce:47:6b:5d:eb:9a:32:cb:
        4e:83:48:d6:80:11:19:de:62:7a:a9:10:85:c2:bf:52:1b:bf:
        1a:dd:eb:07:a6:6d:4f:62:41:2b:5e:9e:b6:20:1b:97:fa:b8:
        ca:15:14:00:3d:5b:9d:9d:28:ee:6c:df:87:78:86:bc:b8:1e:
        1f:cb:1f:10:2c:22:7d:0c:6e:29:fd:0c:a1:e9:3a:f0:30:f7:
        7f:a2:fd:e1:fc:16:ed:43:71:3e:1e:6f:aa:91:8f:7c:f4:7c:
        82:ed:10:b9:21:17:e8:09:c4:4e:bc:c4:df:cb:2f:8a:56:d0:
        4e:2f:49:78:2b:e1:73:a8:47:5a:9b:2d:96:cf:a6:8f:64:7b:
        46:90:f8:b7:da:9d:13:4b:a4:76:ca:1a:54:91:2c:18:b0:1a:
        ed:d3:b0:47:06:f8:10:e8:02:aa:a0:ae:e8:58:84:f3:cb:f0:
        34:7d:57:09:ef:8c:74:b0:e8:fb:d4:23:e7:0a:58:db:c9:b0:
        8b:e8:34:22:b2:c9:5c:c5
-----BEGIN CERTIFICATE-----
MIIFSTCCAzGgAwIBAgIEEjRWeTANBgkqhkiG9w0BAQsFADAmMSQwIgYDVQQDFBtD
QTFfc2hhMjU2XzQwOTZfNjU1MzdfdjNfY2EwIBcNMjYwNDIwMTUwNzQwWhgPMjEy
NjAzMjcxNTA3NDBaMCgxJjAkBgNVBAMMHVNSSzJfc2hhMjU2XzQwOTZfNjU1Mzdf
djNfdXNyMIICIjANBgkqhkiG9w0BAQEFAAOCAg8AMIICCgKCAgEAkBMds9pzRR2X
Z4BknffHs07NJGGYGNb/lN5fg2bGjAR/5fANKcOYwhYH5+HvJaYw0vzG/AZ2lAgR
p9cDp/+xdMGJl4Bf2JhPfrRggZgnGEVViQdw1CLAf0ROOpMx3Tj+BN8Vnc7//dKU
CmmQZAw1zeD/n+cKW4BoL9DPyOz/a75qdwc1SDkbHvC4740Ef91Nkxn61dOPgPPq
IwlgDI8qpGmiUzbwtvrbF/b9W3dklEGo4sl2g0xPkM2PmQwo5nPxDNRNK+rOJYuS
yxHCVC8PgH2By5M+boAlORXo2Vmncz9KwA/Yw3ShJDe2wtwD155w9FxcaNmnvb2a
3ahkHMvNiHA9GeWcWbsG+EvBfp7sHGMfRKNUSRLzc9WG3WCNgMUAQSlra5uRyKq0
2abvF4mKWZb3ktmCWWyJBNYSXd1wJkZHF6xgwC354FKQ9RCoix7g48hULCuTXbeK
DZQQ4+NpeBrRypyDhJPsZFLOWaPOkgc2U9MSOAKvOvPxRgIvaQYbqqQZ1J50Jczm
3To1LKRKEdgXRS4LyQHEJ+C7fkQh2wH0unUI1XmHALb/EfcieEedaBrg+o2OCRNd
G9KS4kG6kSxhDGRinAaaORhLulbrUODIkoUuiL1/HbDDd6CzWsqaHLVqnybh6Fna
N1y29qdIuBUe0KGkPwcRSnz8g/IahcUCAwEAAaN7MHkwCQYDVR0TBAIwADAsBglg
hkgBhvhCAQ0EHxYdT3BlblNTTCBHZW5lcmF0ZWQgQ2VydGlmaWNhdGUwHQYDVR0O
BBYEFFhAvpN1df4D3IjEgS2a8+hN4AiQMB8GA1UdIwQYMBaAFJLW/IkBcvDXRNXD
MY+G2LKtwpNVMA0GCSqGSIb3DQEBCwUAA4ICAQBug4xIokd3tvJMS9qN0qppLxgo
ltigOuohCem3wb0cYweEMLNXPFGg8XiCZXt50FSMmXhlPS5ee+BId01Oo9QeiaO3
TWUZH8aebEMr6R2ENoEjh9aoM5vnDD5A8kP2/WkXHAi+175WEAq9NwTJHedbodil
2bjYRicwJBsTT3S+DYxSDPL+OeRXecHZ5x1TDaOYijeG6Xrm302tBspAtTGGOHKh
yUcieSpFXEUOvSYV9kMoRKgm8Y7pnQrTvDZBJDx6lYqj6OhebKID9ZdddqhXNJoo
GQoDw0XTV66FXcggDf29fyoX0WlC4VK3ZwLkGutKTZCdD2HEq/2o/fG17RcqpgII
+i9dDcT10Sz32gb8+mtfuOhBN4Hq6Z/qnZ6sxl7xh8+NPiBuXp6t6eL15c3ziVix
zPGSlCmFERPczkdrXeuaMstOg0jWgBEZ3mJ6qRCFwr9SG78a3esHpm1PYkErXp62
IBuX+rjKFRQAPVudnSjubN+HeIa8uB4fyx8QLCJ9DG4p/Qyh6TrwMPd/ov3h/Bbt
Q3E+Hm+qkY989HyC7RC5IRfoCcROvMTfyy+KVtBOL0l4K+FzqEdamy2Wz6aPZHtG
kPi32p0TS6R2yhpUkSwYsBrt07BHBvgQ6AKqoK7oWITzy/A0fVcJ74x0sOj71CPn
CljbybCL6DQisslcxQ==
-----END CERTIFICATE-----
