Certificate:
    Data:
        Version: 3 (0x2)
        Serial Number: 305419898 (0x1234567a)
        Signature Algorithm: sha256WithRSAEncryption
        Issuer: CN=CA1_sha256_4096_65537_v3_ca
        Validity
            Not Before: Apr 20 15:07:40 2026 GMT
            Not After : Mar 27 15:07:40 2126 GMT
        Subject: CN=SRK3_sha256_4096_65537_v3_usr
        Subject Public Key Info:
            Public Key Algorithm: rsaEncryption
                Public-Key: (4096 bit)
                Modulus:
                    00:d6:a7:2d:7a:de:3a:7d:ef:51:c3:e3:09:d1:cb:
                    22:d0:41:f5:a9:1d:27:52:ee:12:5c:3f:00:64:39:
                    a6:7b:fc:a2:17:07:b5:6f:a6:4d:16:32:fe:33:4e:
                    ed:7c:08:cc:52:6c:e8:6c:2f:e0:09:c2:e5:01:2a:
                    2f:15:cc:e2:cc:04:0b:d1:4f:3a:67:8d:58:5e:c9:
                    21:8b:13:87:90:ce:f2:bd:5f:de:90:66:eb:f8:0a:
                    37:fd:c6:7f:dc:79:af:88:ac:d0:1a:f1:fa:76:f4:
                    00:a6:0c:5f:57:4a:19:4b:91:df:42:9a:7f:9b:7a:
                    be:01:32:86:2d:2a:1c:8b:77:cc:83:54:73:77:9c:
                    d8:4f:2d:5a:13:88:18:7c:45:24:48:cc:73:53:02:
                    e2:e7:21:74:86:fc:6f:49:1c:44:6d:c6:42:40:ef:
                    a6:7b:01:26:ba:e1:15:f2:57:c1:a7:02:10:2f:95:
                    6c:f7:42:d6:2a:fd:c9:99:c6:f5:d3:f0:ff:b4:5a:
                    79:4c:06:93:15:4a:76:72:34:9a:51:7c:10:58:15:
                    1a:6b:fb:8e:1c:5e:78:24:5f:fa:1d:51:15:01:4f:
                    ad:19:40:ae:8b:99:1c:d0:c4:0c:11:99:09:2d:de:
                    81:d7:da:d3:38:ad:1f:88:29:86:56:c6:91:53:85:
                    d7:f1:09:c7:0c:ad:72:17:ad:6c:7f:88:1f:db:7b:
                    26:bd:e2:17:f0:c4:2e:62:71:7b:8a:84:7b:f4:16:
                    3f:5e:1f:67:eb:e4:99:fa:48:86:d1:14:39:27:1b:
                    64:27:d9:a1:97:55:63:65:a5:ed:56:a2:12:07:c3:
                    5e:6e:24:0f:a8:c9:63:9a:7a:fe:28:50:2d:c0:9a:
                    61:2d:fe:09:de:c8:ab:23:70:0e:39:6b:92:22:39:
                    d5:f8:52:85:1e:69:b1:dc:ce:d3:a0:00:15:b3:04:
                    b7:c6:5b:b6:89:30:c9:b1:59:e5:6b:90:e5:0b:e7:
                    4b:86:c6:87:58:28:a0:2a:d2:1a:6f:8e:af:70:af:
                    90:83:fa:9c:ae:8b:1f:29:f0:30:bd:9e:fe:8d:1f:
                    29:60:07:2f:a0:22:b0:31:ec:11:cd:d5:34:55:e7:
                    13:03:da:68:dc:18:cb:f5:62:bd:e0:d3:07:21:46:
                    61:17:11:fd:2f:f0:76:71:52:c0:cd:d2:72:da:20:
                    da:ed:35:73:bb:56:f4:95:69:e2:07:e7:3b:45:69:
                    12:c2:60:d9:9d:79:a1:30:42:cc:fb:07:fc:6c:f2:
                    0a:42:7e:1f:a2:78:99:f8:82:c3:81:42:66:f7:3f:
                    f0:a7:9f:06:27:95:a9:19:62:23:2d:01:af:f2:0b:
                    00:32:b5
                Exponent: 65537 (0x10001)
        X509v3 extensions:
            X509v3 Basic Constraints: 
                CA:FALSE
            Netscape Comment: 
                OpenSSL Generated Certificate
            X509v3 Subject Key Identifier: 
                D7:3B:EA:1D:35:F8:DB:33:75:C3:2F:13:5E:2B:5E:80:51:1B:82:13
            X509v3 Authority Key Identifier: 
                92:D6:FC:89:01:72:F0:D7:44:D5:C3:31:8F:86:D8:B2:AD:C2:93:55
    Signature Algorithm: sha256WithRSAEncryption
    Signature Value:
        85:63:6c:47:5f:8d:23:fe:b7:e5:70:a8:77:7c:87:62:93:e3:
        d0:82:0d:b7:77:1d:24:be:92:dc:71:cb:b2:c8:a7:f1:dd:38:
        7e:dd:b6:f3:4d:c5:08:6a:ce:16:d2:97:28:8c:ac:7d:d9:15:
        26:a2:6b:cb:3f:e8:3b:0d:36:71:0c:59:53:4c:0e:1c:af:09:
        14:0c:76:ca:fd:33:3d:f5:ef:f6:17:cb:53:63:48:f5:c7:df:
        80:c2:70:d6:fa:42:c2:a3:ea:5b:38:26:0f:6c:d3:66:55:37:
        2f:38:ca:fe:e7:7f:30:a6:02:37:50:30:75:8c:5a:3f:01:c0:
        aa:f9:b4:26:c0:42:e5:aa:ed:b8:af:6f:b4:06:72:2a:6f:e6:
        0b:c9:30:4d:33:31:7a:b9:56:7e:b5:c4:23:b6:87:3d:53:f6:
        8e:0d:be:98:ab:49:19:45:9f:6a:2c:31:bc:d9:e5:0c:a7:ae:
        0b:e2:a4:cc:ea:bf:a3:45:ea:99:01:c4:59:25:26:1f:9d:cc:
        e2:7e:82:c6:b9:2d:72:25:fb:ef:53:c3:ae:67:66:23:0b:95:
        9d:ee:43:86:55:e3:53:1e:66:bb:e8:50:34:38:71:30:ea:91:
        3b:05:21:5a:14:31:59:10:5b:f5:b4:0b:bc:dd:2d:d9:c9:8a:
        10:36:65:f7:77:63:1d:0d:bb:58:da:1d:6e:f7:a4:2f:22:90:
        f7:a8:c4:cc:8f:7c:31:a8:0c:71:76:82:4c:3e:0f:3e:82:b6:
        a4:fa:f7:6e:31:df:ed:1f:3a:e9:c1:d0:23:cf:35:74:dd:af:
        71:eb:7f:4b:81:4d:d5:19:61:d3:ea:77:68:13:d7:39:dc:00:
        21:0c:18:e6:e1:9b:7f:07:93:65:5a:98:1f:5a:7c:ed:e5:5b:
        90:58:7f:d1:6d:34:f4:ba:74:82:fe:35:00:d8:2f:91:ad:a1:
        52:53:7e:b0:10:2f:24:a8:d5:af:2c:dd:de:80:41:9c:49:f9:
        95:dc:70:3b:c8:7d:2a:61:91:e6:3d:82:c9:78:d0:43:78:90:
        99:e0:10:8c:2b:c0:8f:f5:6d:2a:9b:bd:35:dc:3b:7c:c8:6f:
        9f:7d:16:09:7e:f9:15:e3:17:8e:df:33:3a:65:ad:49:7c:30:
        8f:3f:27:c3:0d:c3:c4:de:5a:f2:7e:3a:8a:b0:73:d2:57:a4:
        14:d6:da:aa:d3:73:f0:28:5f:13:d9:3a:ca:6d:89:df:7e:b6:
        2b:7d:a6:35:2d:40:42:f2:4d:3f:43:c6:e3:de:9b:80:ef:62:
        05:a8:65:a6:35:20:bc:34:8f:5d:39:e9:db:07:3d:4e:21:e7:
        be:10:38:fd:dd:d1:55:e7
-----BEGIN CERTIFICATE-----
MIIFSTCCAzGgAwIBAgIEEjRWejANBgkqhkiG9w0BAQsFADAmMSQwIgYDVQQDFBtD
QTFfc2hhMjU2XzQwOTZfNjU1MzdfdjNfY2EwIBcNMjYwNDIwMTUwNzQwWhgPMjEy
NjAzMjcxNTA3NDBaMCgxJjAkBgNVBAMMHVNSSzNfc2hhMjU2XzQwOTZfNjU1Mzdf
djNfdXNyMIICIjANBgkqhkiG9w0BAQEFAAOCAg8AMIICCgKCAgEA1qctet46fe9R
w+MJ0csi0EH1qR0nUu4SXD8AZDmme/yiFwe1b6ZNFjL+M07tfAjMUmzobC/gCcLl
ASovFczizAQL0U86Z41YXskhixOHkM7yvV/ekGbr+Ao3/cZ/3HmviKzQGvH6dvQA
pgxfV0oZS5HfQpp/m3q+ATKGLSoci3fMg1Rzd5zYTy1aE4gYfEUkSMxzUwLi5yF0
hvxvSRxEbcZCQO+mewEmuuEV8lfBpwIQL5Vs90LWKv3Jmcb10/D/tFp5TAaTFUp2
cjSaUXwQWBUaa/uOHF54JF/6HVEVAU+tGUCui5kc0MQMEZkJLd6B19rTOK0fiCmG
VsaRU4XX8QnHDK1yF61sf4gf23smveIX8MQuYnF7ioR79BY/Xh9n6+SZ+kiG0RQ5
JxtkJ9mhl1VjZaXtVqISB8NebiQPqMljmnr+KFAtwJphLf4J3sirI3AOOWuSIjnV
+FKFHmmx3M7ToAAVswS3xlu2iTDJsVnla5DlC+dLhsaHWCigKtIab46vcK+Qg/qc
rosfKfAwvZ7+jR8pYAcvoCKwMewRzdU0VecTA9po3BjL9WK94NMHIUZhFxH9L/B2
cVLAzdJy2iDa7TVzu1b0lWniB+c7RWkSwmDZnXmhMELM+wf8bPIKQn4foniZ+ILD
gUJm9z/wp58GJ5WpGWIjLQGv8gsAMrUCAwEAAaN7MHkwCQYDVR0TBAIwADAsBglg
hkgBhvhCAQ0EHxYdT3BlblNTTCBHZW5lcmF0ZWQgQ2VydGlmaWNhdGUwHQYDVR0O
BBYEFNc76h01+NszdcMvE14rXoBRG4ITMB8GA1UdIwQYMBaAFJLW/IkBcvDXRNXD
MY+G2LKtwpNVMA0GCSqGSIb3DQEBCwUAA4ICAQCFY2xHX40j/rflcKh3fIdik+PQ
gg23dx0kvpLcccuyyKfx3Th+3bbzTcUIas4W0pcojKx92RUmomvLP+g7DTZxDFlT
TA4crwkUDHbK/TM99e/2F8tTY0j1x9+AwnDW+kLCo+pbOCYPbNNmVTcvOMr+538w
pgI3UDB1jFo/AcCq+bQmwELlqu24r2+0BnIqb+YLyTBNMzF6uVZ+tcQjtoc9U/aO
Db6Yq0kZRZ9qLDG82eUMp64L4qTM6r+jReqZAcRZJSYfnczifoLGuS1yJfvvU8Ou
Z2YjC5Wd7kOGVeNTHma76FA0OHEw6pE7BSFaFDFZEFv1tAu83S3ZyYoQNmX3d2Md
DbtY2h1u96QvIpD3qMTMj3wxqAxxdoJMPg8+grak+vduMd/tHzrpwdAjzzV03a9x
639LgU3VGWHT6ndoE9c53AAhDBjm4Zt/B5NlWpgfWnzt5VuQWH/RbTT0unSC/jUA
2C+RraFSU36wEC8kqNWvLN3egEGcSfmV3HA7yH0qYZHmPYLJeNBDeJCZ4BCMK8CP
9W0qm7013Dt8yG+ffRYJfvkV4xeO3zM6Za1JfDCPPyfDDcPE3lryfjqKsHPSV6QU
1tqq03PwKF8T2TrKbYnffrYrfaY1LUBC8k0/Q8bj3puA72IFqGWmNSC8NI9dOenb
Bz1OIee+EDj93dFV5w==
-----END CERTIFICATE-----
