Certificate:
    Data:
        Version: 3 (0x2)
        Serial Number: 305419899 (0x1234567b)
        Signature Algorithm: sha256WithRSAEncryption
        Issuer: CN=CA1_sha256_4096_65537_v3_ca
        Validity
            Not Before: Apr 20 15:07:41 2026 GMT
            Not After : Mar 27 15:07:41 2126 GMT
        Subject: CN=SRK4_sha256_4096_65537_v3_usr
        Subject Public Key Info:
            Public Key Algorithm: rsaEncryption
                Public-Key: (4096 bit)
                Modulus:
                    00:a0:1e:e6:61:60:be:29:54:dd:4e:58:df:36:c1:
                    8a:a0:cf:23:f8:8b:73:cf:6f:cb:08:02:ce:ea:90:
                    6d:d9:8a:23:93:ee:d3:53:f8:e1:5e:a1:89:d7:99:
                    a6:50:54:6e:9b:cd:ae:b1:36:12:30:77:e5:a5:de:
                    ad:ed:a3:7e:ab:c0:68:c6:b3:1e:b0:39:ca:b2:77:
                    50:c1:6f:d8:a1:63:ca:18:ee:be:ff:1b:0b:8e:25:
                    dd:2d:d3:92:a5:6d:18:aa:f4:e9:31:2c:73:7e:3d:
                    d2:94:33:14:ea:4b:35:b6:a9:5a:78:b7:79:b8:8b:
                    f0:e8:35:f0:ea:1a:b4:f5:13:3a:06:96:c3:c0:39:
                    6f:61:91:44:a5:d6:7c:f4:de:08:90:d1:5c:85:d0:
                    91:dc:c6:d7:d0:e1:76:f6:9e:cf:11:03:7d:1a:c7:
                    34:fa:1f:24:e4:d8:e6:84:5c:a8:03:e0:cd:f1:47:
                    67:61:57:d8:6a:72:ba:a0:b7:3c:e2:49:17:c4:22:
                    18:35:97:66:64:b0:0a:ce:cc:a9:aa:c5:05:cb:43:
                    d4:ef:3b:e3:64:7e:66:c8:00:58:99:3a:39:7b:95:
                    08:79:be:e3:c4:88:bd:b5:f9:d6:1e:b9:b5:f5:66:
                    86:00:8b:20:96:37:9f:5a:d0:d5:43:7d:e2:e0:81:
                    74:0f:20:c8:c6:c6:1e:85:cf:cb:2f:1d:63:7c:49:
                    c0:fb:b8:0c:5a:82:de:8b:b3:80:27:2f:9c:72:67:
                    95:f8:87:35:dc:64:32:48:3a:84:17:dc:15:ce:14:
                    76:a9:43:e5:36:ec:90:6b:1e:a3:aa:7d:06:01:a6:
                    65:cf:73:41:f3:65:10:df:91:0e:26:dd:77:cf:a8:
                    59:f1:f9:a0:60:85:fb:5d:3a:9d:77:22:99:5a:7d:
                    a4:cc:0a:ca:25:fe:a7:78:ef:74:b6:ff:17:28:c5:
                    02:57:8f:c8:30:2d:ac:be:96:69:4e:43:08:f6:d1:
                    19:f8:40:a0:db:b3:a1:83:6d:4f:91:2e:a3:b6:b3:
                    07:14:3f:a6:92:01:ef:07:31:28:4f:b1:be:72:e2:
                    3b:f9:46:f7:50:92:62:22:d6:30:c7:35:bf:4d:1b:
                    95:18:23:4b:f6:14:82:15:34:3c:c2:7c:11:0d:15:
                    01:a5:16:05:35:27:37:04:da:e0:cb:17:f9:c5:30:
                    37:9d:73:e6:30:83:9a:aa:33:8c:79:f2:24:26:60:
                    19:51:7c:cc:4b:01:d0:d8:5c:3d:70:91:ee:5e:78:
                    62:b0:23:1b:38:d3:b7:e0:b5:67:0b:e5:a5:e2:cc:
                    54:d1:b7:c0:43:57:43:78:dc:ad:d5:d9:66:7b:39:
                    64:3f:bd
                Exponent: 65537 (0x10001)
        X509v3 extensions:
            X509v3 Basic Constraints: 
                CA:FALSE
            Netscape Comment: 
                OpenSSL Generated Certificate
            X509v3 Subject Key Identifier: 
                EE:D8:AE:69:C3:AB:03:49:8D:44:55:2E:0F:0E:4B:95:9B:55:85:E0
            X509v3 Authority Key Identifier: 
                92:D6:FC:89:01:72:F0:D7:44:D5:C3:31:8F:86:D8:B2:AD:C2:93:55
    Signature Algorithm: sha256WithRSAEncryption
    Signature Value:
        9a:72:f7:66:f6:b8:bb:10:dc:19:72:6e:44:48:e3:db:e8:7c:
        c2:93:8f:69:c7:9a:05:34:eb:7f:3c:23:ba:a6:2c:1f:94:9d:
        74:04:01:5b:d1:c2:c3:1c:18:c3:63:60:2c:ac:18:d7:4b:40:
        e1:61:e8:64:b4:e6:90:38:25:a5:be:fa:0f:01:42:d4:83:cf:
        da:5d:55:e9:7b:28:68:25:9b:77:87:67:3f:bc:a2:d7:58:c7:
        62:1f:f8:27:92:6c:e9:fa:f6:88:b3:ee:18:62:57:29:1c:75:
        3d:77:2b:8d:60:3a:ec:5d:b2:e4:fd:9a:e2:5a:1f:d8:d4:98:
        43:6b:72:56:4e:0a:29:46:73:4c:b2:c9:ef:ba:cb:47:c8:77:
        1c:c8:ed:f9:ed:0c:35:5e:80:f8:4d:bc:4d:65:6b:82:70:1f:
        06:90:42:63:1e:04:e8:68:2c:23:ad:df:d4:3d:8a:16:30:92:
        18:6c:3a:6f:9f:ab:d4:de:71:44:e8:d3:64:93:8e:94:5e:75:
        c4:c0:e9:bb:e4:0c:cd:8e:d2:2f:1b:b0:ef:53:c9:00:77:69:
        24:4d:e2:d5:8d:c6:bc:54:53:ff:da:a9:8d:ef:eb:80:06:90:
        d8:05:86:33:3d:f1:db:1f:42:71:b9:ce:de:b6:c1:5a:66:c9:
        6c:37:be:d2:67:b8:cc:d2:b9:95:d1:82:b5:85:ef:76:6f:21:
        ee:ff:7f:55:4b:85:99:4b:f0:b7:7d:e2:24:d4:7c:3f:7a:73:
        47:e0:eb:6b:55:22:f9:b1:0a:82:27:c8:e6:e3:ba:22:af:65:
        60:95:f5:31:ab:f7:a3:e1:c2:7a:ab:77:f2:93:ce:77:ce:07:
        c3:2f:1a:23:4d:63:5b:7c:b3:9e:6c:97:9d:8f:d6:06:06:8e:
        ee:2f:3c:b3:91:20:01:2d:26:14:dc:8d:7c:70:d3:26:43:1d:
        b0:c4:95:67:f6:d9:c6:17:ad:c9:c3:75:f1:18:23:e0:e8:1f:
        c0:96:fa:d4:de:fa:e5:ab:02:a0:63:e5:34:b1:d4:08:ac:7f:
        b9:c1:8b:41:d1:48:05:c6:bc:a4:ac:fa:6b:ad:a5:f0:f8:49:
        1c:17:61:5d:ec:98:5f:a6:89:b9:d8:a6:49:a1:8b:74:31:e7:
        23:f7:8f:f7:d7:91:ab:c7:e8:ac:dc:67:65:5b:72:47:22:a4:
        2e:5e:b1:c6:f3:f9:43:b2:fe:c4:8a:03:46:4e:20:a9:b0:fc:
        01:e6:f1:0d:e5:fd:b2:8a:e3:b5:f1:4a:22:08:f3:a5:9e:ec:
        e5:1d:c2:b4:08:2d:e8:75:8c:81:63:a2:d9:b8:23:a9:38:9b:
        c9:70:d1:fe:42:e3:80:35
-----BEGIN CERTIFICATE-----
MIIFSTCCAzGgAwIBAgIEEjRWezANBgkqhkiG9w0BAQsFADAmMSQwIgYDVQQDFBtD
QTFfc2hhMjU2XzQwOTZfNjU1MzdfdjNfY2EwIBcNMjYwNDIwMTUwNzQxWhgPMjEy
NjAzMjcxNTA3NDFaMCgxJjAkBgNVBAMMHVNSSzRfc2hhMjU2XzQwOTZfNjU1Mzdf
djNfdXNyMIICIjANBgkqhkiG9w0BAQEFAAOCAg8AMIICCgKCAgEAoB7mYWC+KVTd
TljfNsGKoM8j+Itzz2/LCALO6pBt2Yojk+7TU/jhXqGJ15mmUFRum82usTYSMHfl
pd6t7aN+q8BoxrMesDnKsndQwW/YoWPKGO6+/xsLjiXdLdOSpW0YqvTpMSxzfj3S
lDMU6ks1tqlaeLd5uIvw6DXw6hq09RM6BpbDwDlvYZFEpdZ89N4IkNFchdCR3MbX
0OF29p7PEQN9Gsc0+h8k5NjmhFyoA+DN8UdnYVfYanK6oLc84kkXxCIYNZdmZLAK
zsypqsUFy0PU7zvjZH5myABYmTo5e5UIeb7jxIi9tfnWHrm19WaGAIsgljefWtDV
Q33i4IF0DyDIxsYehc/LLx1jfEnA+7gMWoLei7OAJy+ccmeV+Ic13GQySDqEF9wV
zhR2qUPlNuyQax6jqn0GAaZlz3NB82UQ35EOJt13z6hZ8fmgYIX7XTqddyKZWn2k
zArKJf6neO90tv8XKMUCV4/IMC2svpZpTkMI9tEZ+ECg27Ohg21PkS6jtrMHFD+m
kgHvBzEoT7G+cuI7+Ub3UJJiItYwxzW/TRuVGCNL9hSCFTQ8wnwRDRUBpRYFNSc3
BNrgyxf5xTA3nXPmMIOaqjOMefIkJmAZUXzMSwHQ2Fw9cJHuXnhisCMbONO34LVn
C+Wl4sxU0bfAQ1dDeNyt1dlmezlkP70CAwEAAaN7MHkwCQYDVR0TBAIwADAsBglg
hkgBhvhCAQ0EHxYdT3BlblNTTCBHZW5lcmF0ZWQgQ2VydGlmaWNhdGUwHQYDVR0O
BBYEFO7YrmnDqwNJjURVLg8OS5WbVYXgMB8GA1UdIwQYMBaAFJLW/IkBcvDXRNXD
MY+G2LKtwpNVMA0GCSqGSIb3DQEBCwUAA4ICAQCacvdm9ri7ENwZcm5ESOPb6HzC
k49px5oFNOt/PCO6piwflJ10BAFb0cLDHBjDY2AsrBjXS0DhYehktOaQOCWlvvoP
AULUg8/aXVXpeyhoJZt3h2c/vKLXWMdiH/gnkmzp+vaIs+4YYlcpHHU9dyuNYDrs
XbLk/ZriWh/Y1JhDa3JWTgopRnNMssnvustHyHccyO357Qw1XoD4TbxNZWuCcB8G
kEJjHgToaCwjrd/UPYoWMJIYbDpvn6vU3nFE6NNkk46UXnXEwOm75AzNjtIvG7Dv
U8kAd2kkTeLVjca8VFP/2qmN7+uABpDYBYYzPfHbH0Jxuc7etsFaZslsN77SZ7jM
0rmV0YK1he92byHu/39VS4WZS/C3feIk1Hw/enNH4OtrVSL5sQqCJ8jm47oir2Vg
lfUxq/ej4cJ6q3fyk853zgfDLxojTWNbfLOebJedj9YGBo7uLzyzkSABLSYU3I18
cNMmQx2wxJVn9tnGF63Jw3XxGCPg6B/AlvrU3vrlqwKgY+U0sdQIrH+5wYtB0UgF
xrykrPprraXw+EkcF2Fd7Jhfpom52KZJoYt0Mecj94/315Grx+is3GdlW3JHIqQu
XrHG8/lDsv7EigNGTiCpsPwB5vEN5f2yiuO18UoiCPOlnuzlHcK0CC3odYyBY6LZ
uCOpOJvJcNH+QuOANQ==
-----END CERTIFICATE-----
