Certificate:
    Data:
        Version: 3 (0x2)
        Serial Number: 305419899 (0x1234567b)
        Signature Algorithm: ecdsa-with-SHA384
        Issuer: CN=CA1_sha384_secp384r1_v3_ca
        Validity
            Not Before: Oct 30 14:16:48 2024 GMT
            Not After : Oct  6 14:16:48 2124 GMT
        Subject: CN=SRK4_sha384_secp384r1_v3_usr
        Subject Public Key Info:
            Public Key Algorithm: id-ecPublicKey
                Public-Key: (384 bit)
                pub:
                    04:71:76:47:cc:db:1f:da:8d:2f:d8:5a:34:a9:98:
                    40:cd:4b:a4:72:32:5c:d5:bc:ae:42:df:22:51:b5:
                    28:f7:cb:81:c5:50:64:ea:a2:d4:10:25:74:f3:0d:
                    ed:28:8b:49:26:34:31:6b:39:8d:11:e3:7d:f1:18:
                    b2:d3:66:bf:50:91:1e:7e:67:b5:75:e0:ca:89:0a:
                    6d:a8:a1:6d:b7:77:3a:6d:66:59:49:1c:f3:c4:f2:
                    7b:29:ab:51:cd:3e:69
                ASN1 OID: secp384r1
                NIST CURVE: P-384
        X509v3 extensions:
            X509v3 Basic Constraints: 
                CA:FALSE
            Netscape Comment: 
                OpenSSL Generated Certificate
            X509v3 Subject Key Identifier: 
                DC:AB:98:33:61:D2:EA:27:7E:78:97:07:96:05:BB:35:50:AF:7D:FD
            X509v3 Authority Key Identifier: 
                C1:89:87:25:2E:15:53:B4:09:CF:8D:A1:AC:72:E1:7D:CA:7F:4D:AB
    Signature Algorithm: ecdsa-with-SHA384
    Signature Value:
        30:65:02:31:00:b4:da:34:81:64:08:0d:15:a7:2a:fa:6b:00:
        4d:fe:b5:9f:40:7e:1e:3b:96:61:b6:29:76:9f:e2:5a:b0:86:
        f8:df:d7:ae:76:88:ed:0a:f9:d4:47:19:1c:ed:8e:97:46:02:
        30:6c:5f:54:99:b6:6c:ec:a4:00:3c:b0:0a:13:f0:89:c7:c8:
        f8:78:c7:2a:25:a7:4c:f3:01:ba:6b:8d:ea:36:1a:b2:c6:a9:
        75:b5:8a:b2:d3:a8:55:78:b1:c7:ac:8d:9c
-----BEGIN CERTIFICATE-----
MIIB+DCCAX6gAwIBAgIEEjRWezAKBggqhkjOPQQDAzAlMSMwIQYDVQQDFBpDQTFf
c2hhMzg0X3NlY3AzODRyMV92M19jYTAgFw0yNDEwMzAxNDE2NDhaGA8yMTI0MTAw
NjE0MTY0OFowJzElMCMGA1UEAwwcU1JLNF9zaGEzODRfc2VjcDM4NHIxX3YzX3Vz
cjB2MBAGByqGSM49AgEGBSuBBAAiA2IABHF2R8zbH9qNL9haNKmYQM1LpHIyXNW8
rkLfIlG1KPfLgcVQZOqi1BAldPMN7SiLSSY0MWs5jRHjffEYstNmv1CRHn5ntXXg
yokKbaihbbd3Om1mWUkc88TyeymrUc0+aaN7MHkwCQYDVR0TBAIwADAsBglghkgB
hvhCAQ0EHxYdT3BlblNTTCBHZW5lcmF0ZWQgQ2VydGlmaWNhdGUwHQYDVR0OBBYE
FNyrmDNh0uonfniXB5YFuzVQr339MB8GA1UdIwQYMBaAFMGJhyUuFVO0Cc+Noaxy
4X3Kf02rMAoGCCqGSM49BAMDA2gAMGUCMQC02jSBZAgNFacq+msATf61n0B+HjuW
YbYpdp/iWrCG+N/XrnaI7Qr51EcZHO2Ol0YCMGxfVJm2bOykADywChPwicfI+HjH
KiWnTPMBumuN6jYassapdbWKstOoVXixx6yNnA==
-----END CERTIFICATE-----
