Certificate:
    Data:
        Version: 3 (0x2)
        Serial Number: 305419915 (0x1234568b)
        Signature Algorithm: sha256WithRSAEncryption
        Issuer: CN=SRK3_sha256_4096_65537_v3_ca
        Validity
            Not Before: May 22 09:56:44 2019 GMT
            Not After : Apr 28 09:56:44 2119 GMT
        Subject: CN=CSF3_1_sha256_4096_65537_v3_usr
        Subject Public Key Info:
            Public Key Algorithm: rsaEncryption
                RSA Public-Key: (4096 bit)
                Modulus:
                    00:c4:a9:99:0a:4b:54:04:9d:d3:1a:03:0c:58:1e:
                    84:5b:9a:f5:04:5e:25:e4:17:3b:95:ba:37:7c:4a:
                    06:a1:cb:7e:ba:3b:13:1b:68:51:4c:c4:71:c1:2c:
                    80:ca:fc:be:d8:32:55:84:f4:f9:92:4b:37:f9:86:
                    1a:36:15:8f:f6:04:b4:dd:f0:2e:99:d3:cb:82:3a:
                    b4:c6:3d:c9:5a:cb:c0:b1:a1:0d:4b:88:06:78:5a:
                    42:92:77:a6:ae:f1:d8:a7:02:07:b0:90:b8:30:12:
                    f7:01:01:41:fb:66:6e:a0:67:9c:d3:ce:45:e1:1c:
                    d4:c5:85:e7:ea:68:1b:d3:8e:46:45:dc:e2:fb:2e:
                    45:b8:b7:ee:e5:4a:dd:52:2c:88:a0:98:cc:22:0d:
                    f9:b5:46:7c:eb:ad:a1:fe:d6:22:96:0c:38:18:c7:
                    e9:a6:5f:f4:b4:c0:8e:aa:c3:f2:cc:1f:e1:6f:29:
                    0b:db:a8:cc:4d:0a:b0:c7:e2:55:30:5b:fc:62:42:
                    02:b2:e1:35:44:db:c3:fa:6e:2e:25:af:f6:12:06:
                    c1:92:43:ed:84:11:48:3e:5f:c6:9b:de:71:42:8d:
                    e9:62:e6:8f:8b:9e:7e:a2:a1:ac:c1:12:b3:2a:53:
                    e0:73:5c:ae:6a:e9:8f:27:bc:90:95:36:18:3a:93:
                    12:f6:bd:0c:11:96:35:89:b9:b3:3d:34:23:65:06:
                    f3:db:3a:7c:94:60:7d:91:a3:76:e5:bc:4f:82:15:
                    42:8a:0b:a9:c5:d0:d6:cc:b1:99:c6:92:6b:03:0b:
                    9a:f9:3c:f7:b9:54:db:1f:e9:a6:62:f0:9a:69:da:
                    07:c0:22:50:e4:ae:ca:22:9e:ef:5c:4a:da:be:b0:
                    8c:e8:b2:26:42:1f:b5:e2:6c:6d:19:f7:26:ea:af:
                    f2:ae:8e:16:a0:ab:73:9f:e2:74:81:69:d0:f7:51:
                    fd:34:9f:c8:88:2a:aa:33:c0:ba:12:ae:aa:a5:ca:
                    b9:b2:38:5e:64:7b:89:53:14:27:36:9e:b0:d7:2e:
                    c5:fc:35:d0:3b:71:ee:72:e7:65:6a:dd:b7:55:fb:
                    a7:ca:6d:8b:08:dd:56:9f:3c:3b:83:97:b3:53:51:
                    dd:58:72:5b:c7:2f:aa:0f:07:89:9f:7b:5e:11:8a:
                    42:75:9d:49:a7:12:b6:c2:2b:0b:03:a1:03:a0:ca:
                    ed:ac:6b:1e:53:09:32:24:b4:28:59:66:55:01:d3:
                    c7:09:53:26:6e:56:00:84:5c:7d:cf:38:91:6d:03:
                    c5:e1:00:24:05:11:6e:94:11:a6:84:55:16:bc:25:
                    9b:64:7c:77:d6:9f:d1:29:8f:04:78:ae:2e:79:3d:
                    27:18:35
                Exponent: 65537 (0x10001)
        X509v3 extensions:
            X509v3 Basic Constraints: 
                CA:FALSE
            Netscape Comment: 
                OpenSSL Generated Certificate
            X509v3 Subject Key Identifier: 
                13:68:7D:E0:F0:68:2E:E1:C5:49:5C:EC:B5:CD:B7:3C:34:6C:53:5E
            X509v3 Authority Key Identifier: 
                keyid:00:25:A3:06:B9:17:B1:5F:5B:16:45:EE:7C:FD:0A:37:C0:FB:3C:E2

    Signature Algorithm: sha256WithRSAEncryption
         93:e2:8b:3e:7e:96:3c:39:7f:36:6b:54:b7:69:18:3d:74:32:
         30:7b:63:bd:69:3f:ae:78:9f:8b:b1:a2:17:cd:d4:0d:8c:2b:
         1e:8d:de:80:f0:ee:38:71:cf:d5:1a:cf:95:e9:bc:b7:a1:92:
         ed:7b:58:eb:00:3c:81:ef:fe:11:31:56:42:e9:b8:4c:ea:9b:
         43:f3:bc:9e:34:8a:7b:4b:33:cb:8c:74:3e:88:e0:06:cf:9c:
         da:f2:b5:3c:6d:09:9b:82:ee:79:fa:c3:78:61:db:4f:ba:a3:
         5b:25:b8:fa:41:36:51:75:e7:c4:bd:08:d8:27:30:db:8e:fe:
         8f:cb:11:05:ca:7a:02:e7:a1:a8:f6:b7:24:5b:59:04:4c:a3:
         60:be:b7:89:ac:bf:c8:77:06:3d:d3:d7:a7:e1:0a:a3:17:41:
         82:08:13:9c:97:44:85:13:ee:db:dc:34:22:87:14:6a:32:19:
         1c:c7:51:dc:a1:c0:df:7a:35:b6:db:08:85:8c:2e:3a:98:03:
         67:3e:30:a6:4a:0b:38:02:68:38:d2:f4:00:82:7b:80:39:ff:
         3b:cc:47:a6:e5:b0:27:ed:5a:ce:9b:e3:6e:20:a7:71:b6:d0:
         a8:7d:a0:2b:0d:93:72:44:a7:5b:2c:3d:5d:6b:5b:71:d9:04:
         e5:55:a0:aa:3f:e1:4e:13:f6:70:fd:a4:b9:70:60:92:fe:dd:
         1b:8d:86:c5:56:ba:ca:61:4c:8a:ea:e7:61:1c:d4:31:0f:30:
         63:3a:60:59:45:ab:8b:74:64:9d:a5:5e:86:19:5d:1a:46:10:
         aa:61:0a:27:8f:30:48:f6:d9:6e:f9:37:1a:84:32:92:f7:d3:
         22:9a:03:ee:7d:52:41:b1:aa:63:65:df:6a:61:7e:0d:31:08:
         0f:c5:17:c2:19:55:01:e7:b7:1f:42:76:e4:00:f1:19:0d:63:
         1a:d6:37:56:81:14:4e:71:8f:63:6a:b0:30:ba:4e:73:80:79:
         2f:03:36:26:71:eb:a8:6b:91:e1:1a:c2:24:d4:c0:7c:01:08:
         e4:e8:3e:7e:6f:78:17:dc:c4:f8:83:96:fb:f0:11:3b:06:c7:
         9f:36:b3:44:15:97:3e:4f:3a:22:e0:b6:94:c1:9f:98:77:d7:
         9d:6e:65:bd:d0:c8:07:29:a4:00:65:b0:5e:75:36:bf:30:21:
         4f:2c:c7:3d:ec:f7:fe:e5:37:d1:8b:b9:09:1f:f5:c7:99:7a:
         8b:85:88:ea:5b:01:7e:28:22:20:e6:83:98:75:27:d8:cb:4b:
         f8:d6:4d:94:00:81:4a:ab:ee:dd:54:63:0c:d5:0a:09:ff:32:
         20:fe:84:2d:b6:83:e7:4b
-----BEGIN CERTIFICATE-----
MIIFTDCCAzSgAwIBAgIEEjRWizANBgkqhkiG9w0BAQsFADAnMSUwIwYDVQQDDBxT
UkszX3NoYTI1Nl80MDk2XzY1NTM3X3YzX2NhMCAXDTE5MDUyMjA5NTY0NFoYDzIx
MTkwNDI4MDk1NjQ0WjAqMSgwJgYDVQQDDB9DU0YzXzFfc2hhMjU2XzQwOTZfNjU1
MzdfdjNfdXNyMIICIjANBgkqhkiG9w0BAQEFAAOCAg8AMIICCgKCAgEAxKmZCktU
BJ3TGgMMWB6EW5r1BF4l5Bc7lbo3fEoGoct+ujsTG2hRTMRxwSyAyvy+2DJVhPT5
kks3+YYaNhWP9gS03fAumdPLgjq0xj3JWsvAsaENS4gGeFpCknemrvHYpwIHsJC4
MBL3AQFB+2ZuoGec085F4RzUxYXn6mgb045GRdzi+y5FuLfu5UrdUiyIoJjMIg35
tUZ8662h/tYilgw4GMfppl/0tMCOqsPyzB/hbykL26jMTQqwx+JVMFv8YkICsuE1
RNvD+m4uJa/2EgbBkkPthBFIPl/Gm95xQo3pYuaPi55+oqGswRKzKlPgc1yuaumP
J7yQlTYYOpMS9r0MEZY1ibmzPTQjZQbz2zp8lGB9kaN25bxPghVCigupxdDWzLGZ
xpJrAwua+Tz3uVTbH+mmYvCaadoHwCJQ5K7KIp7vXEravrCM6LImQh+14mxtGfcm
6q/yro4WoKtzn+J0gWnQ91H9NJ/IiCqqM8C6Eq6qpcq5sjheZHuJUxQnNp6w1y7F
/DXQO3Hucudlat23Vfunym2LCN1Wnzw7g5ezU1HdWHJbxy+qDweJn3teEYpCdZ1J
pxK2wisLA6EDoMrtrGseUwkyJLQoWWZVAdPHCVMmblYAhFx9zziRbQPF4QAkBRFu
lBGmhFUWvCWbZHx31p/RKY8EeK4ueT0nGDUCAwEAAaN7MHkwCQYDVR0TBAIwADAs
BglghkgBhvhCAQ0EHxYdT3BlblNTTCBHZW5lcmF0ZWQgQ2VydGlmaWNhdGUwHQYD
VR0OBBYEFBNofeDwaC7hxUlc7LXNtzw0bFNeMB8GA1UdIwQYMBaAFAAlowa5F7Ff
WxZF7nz9CjfA+zziMA0GCSqGSIb3DQEBCwUAA4ICAQCT4os+fpY8OX82a1S3aRg9
dDIwe2O9aT+ueJ+LsaIXzdQNjCsejd6A8O44cc/VGs+V6by3oZLte1jrADyB7/4R
MVZC6bhM6ptD87yeNIp7SzPLjHQ+iOAGz5za8rU8bQmbgu55+sN4YdtPuqNbJbj6
QTZRdefEvQjYJzDbjv6PyxEFynoC56Go9rckW1kETKNgvreJrL/IdwY909en4Qqj
F0GCCBOcl0SFE+7b3DQihxRqMhkcx1HcocDfejW22wiFjC46mANnPjCmSgs4Amg4
0vQAgnuAOf87zEem5bAn7VrOm+NuIKdxttCofaArDZNyRKdbLD1da1tx2QTlVaCq
P+FOE/Zw/aS5cGCS/t0bjYbFVrrKYUyK6udhHNQxDzBjOmBZRauLdGSdpV6GGV0a
RhCqYQonjzBI9tlu+TcahDKS99MimgPufVJBsapjZd9qYX4NMQgPxRfCGVUB57cf
QnbkAPEZDWMa1jdWgRROcY9jarAwuk5zgHkvAzYmceuoa5HhGsIk1MB8AQjk6D5+
b3gX3MT4g5b78BE7BsefNrNEFZc+Tzoi4LaUwZ+Yd9edbmW90MgHKaQAZbBedTa/
MCFPLMc97Pf+5TfRi7kJH/XHmXqLhYjqWwF+KCIg5oOYdSfYy0v41k2UAIFKq+7d
VGMM1QoJ/zIg/oQttoPnSw==
-----END CERTIFICATE-----
