Certificate:
    Data:
        Version: 3 (0x2)
        Serial Number: 305419916 (0x1234568c)
        Signature Algorithm: sha256WithRSAEncryption
        Issuer: CN=SRK3_sha256_4096_65537_v3_ca
        Validity
            Not Before: May 22 09:56:45 2019 GMT
            Not After : Apr 28 09:56:45 2119 GMT
        Subject: CN=IMG3_1_sha256_4096_65537_v3_usr
        Subject Public Key Info:
            Public Key Algorithm: rsaEncryption
                RSA Public-Key: (4096 bit)
                Modulus:
                    00:a6:26:a8:f1:a7:ca:65:6c:cc:0f:57:04:21:5d:
                    15:4d:d9:d8:6e:a1:ae:12:4d:5c:fb:2f:10:66:c9:
                    3b:86:a2:b4:a8:56:52:4d:70:b3:df:66:d8:a9:d9:
                    6b:cd:f0:23:5b:7e:06:75:8c:5f:d9:ca:1e:6a:c5:
                    20:06:fa:61:15:f0:ce:fd:c2:24:c5:84:f5:4c:61:
                    6b:cd:57:d4:95:02:dd:f0:c2:56:5d:47:0f:8d:2c:
                    07:b1:01:18:27:35:a5:7c:3e:07:5e:8b:a4:c3:b4:
                    23:b3:44:c9:0e:1a:8d:08:5e:f9:49:7d:0d:47:39:
                    b7:6c:8c:1a:7b:89:11:a4:7e:2c:cf:d0:77:33:1b:
                    72:ea:8c:06:6c:88:c4:51:ef:95:b2:fe:f2:4d:fc:
                    38:c8:cb:68:9e:a7:21:c7:70:3c:0a:c2:bb:26:46:
                    f3:4d:4c:d2:b7:d7:08:a9:ed:e5:55:98:f7:3a:07:
                    19:8e:2b:97:32:9d:f4:17:90:88:8a:87:24:eb:05:
                    19:37:15:5e:50:80:01:34:12:48:25:38:9b:f8:34:
                    53:86:10:c2:4e:9b:65:ca:22:25:74:47:7d:72:4f:
                    95:a0:96:53:be:f5:da:3b:42:05:67:e7:7f:68:a9:
                    60:54:84:c4:82:db:6d:c3:07:6b:21:4b:ac:e5:3b:
                    84:37:db:b2:bc:ac:79:70:54:cd:04:f1:4e:76:34:
                    b1:17:ca:a0:05:81:27:6e:7b:cd:54:72:76:c1:b1:
                    a5:a6:e5:94:6c:0c:74:e3:36:52:75:1d:89:29:00:
                    04:e0:1d:59:70:c9:69:f5:bf:a1:b2:73:1c:23:19:
                    fd:6a:84:ab:08:bc:a8:2a:91:8a:a2:8e:b9:b0:fd:
                    13:6d:65:80:a6:2e:90:87:eb:27:59:9e:5f:6e:45:
                    76:4e:5c:65:d8:13:c4:23:f8:7d:50:30:a1:c3:77:
                    0b:06:3e:3e:16:22:b4:0b:a7:60:61:ae:07:20:3e:
                    a3:c4:fb:62:4b:5f:c8:a8:95:56:a5:62:dd:a0:69:
                    99:a3:20:d3:42:83:71:97:4c:82:8a:15:8d:21:59:
                    04:e9:7a:3e:f1:98:1d:55:fc:59:6b:03:12:3d:a1:
                    a7:d6:b4:87:30:ad:20:7d:4a:45:06:0f:07:eb:d8:
                    80:b9:33:4b:0e:71:05:8c:48:3f:01:eb:46:96:22:
                    08:ab:3e:a5:6d:d3:38:23:40:81:56:1c:1c:c7:0e:
                    a9:d0:2e:c4:c9:e4:19:20:d0:a7:bf:10:04:ed:9e:
                    a3:10:9e:16:c0:09:b5:86:d8:fb:3c:fc:97:b2:2f:
                    80:8a:6f:fd:67:9a:33:dc:3a:40:57:78:ba:60:0c:
                    58:77:f3
                Exponent: 65537 (0x10001)
        X509v3 extensions:
            X509v3 Basic Constraints: 
                CA:FALSE
            Netscape Comment: 
                OpenSSL Generated Certificate
            X509v3 Subject Key Identifier: 
                77:B0:9A:A7:4C:44:64:8C:B3:D6:12:D1:B2:4C:40:55:51:9C:4B:09
            X509v3 Authority Key Identifier: 
                keyid:00:25:A3:06:B9:17:B1:5F:5B:16:45:EE:7C:FD:0A:37:C0:FB:3C:E2

    Signature Algorithm: sha256WithRSAEncryption
         5b:e5:cc:dc:94:77:ce:9d:75:05:fd:a3:3b:5e:75:32:69:18:
         81:dc:d5:0c:c6:f4:83:60:46:ae:c5:a2:3f:3c:88:d3:01:7a:
         51:d3:7f:ba:90:f3:97:85:f2:91:93:06:60:b2:46:cd:33:97:
         d0:74:85:b3:bb:47:63:b9:63:10:99:cd:f0:e8:56:81:6b:63:
         54:c7:4a:28:c0:78:33:9c:1e:d1:59:ea:5e:a5:3f:5b:17:3f:
         63:4e:34:9c:c9:fe:77:d2:2b:85:37:a8:29:ba:e0:9b:1f:fc:
         8d:ec:53:4a:08:9f:d6:a9:98:2b:e0:d5:e3:c0:27:1b:08:82:
         51:a1:3d:e0:60:5b:15:df:e0:98:16:72:50:f8:f3:21:23:78:
         d8:47:5d:12:94:e9:1f:f4:98:c2:af:47:80:45:d5:c1:ed:b0:
         dd:08:80:07:87:db:4a:f6:c1:9f:22:7a:99:fe:fb:2f:d1:46:
         25:c6:c0:d1:91:90:9a:b1:c7:a3:01:08:4b:d3:c1:a4:1c:88:
         cd:62:66:5b:61:b4:f1:8e:4c:eb:2e:f1:3c:f5:7a:07:e9:7d:
         dd:f7:c8:36:d0:f4:19:d6:a1:4c:68:78:f9:eb:af:44:e8:c9:
         21:75:61:df:9e:42:ce:0b:29:63:9e:82:92:16:fd:d6:83:ae:
         08:42:1c:32:54:32:f8:fe:a0:e5:ea:ed:88:5f:e4:89:cb:07:
         83:29:5d:1d:41:06:e8:58:10:13:99:e3:78:e7:8e:ba:c4:b0:
         74:ba:c0:73:f3:52:a4:21:9b:78:00:78:8d:4b:0e:06:8c:ef:
         6a:8f:ba:d7:a3:3c:f6:4c:e2:68:b9:26:bc:32:44:9d:44:b7:
         4e:5e:1c:99:52:61:16:ae:cc:ee:0e:89:c5:89:c7:7e:55:dd:
         d1:2d:ef:66:f0:16:9d:c3:7c:d0:97:ad:33:4f:98:76:fc:be:
         ac:35:2b:8e:55:0e:7f:56:ef:2a:f1:f8:9e:ee:5e:d2:54:0c:
         6e:e2:f6:8b:f5:3e:59:65:31:73:ae:c0:0e:38:95:62:ca:ce:
         a8:65:63:ce:0d:18:e2:df:1e:d2:92:5f:92:42:98:af:46:7e:
         36:73:62:f8:ab:73:a9:76:a2:6f:b8:22:f1:0a:68:71:01:85:
         e1:de:ad:7d:6a:9f:5b:33:39:13:a3:1a:ef:48:9e:74:78:af:
         c1:d9:97:7f:22:8b:ff:1c:76:74:dd:2b:b7:11:7b:35:ff:01:
         b6:d8:a4:40:b5:70:51:6c:a4:98:a2:05:43:fe:57:4b:89:78:
         58:b9:e4:ec:d0:2f:73:12:88:f2:71:6d:45:14:94:f0:cb:c4:
         95:af:cd:38:dc:e2:29:bd
-----BEGIN CERTIFICATE-----
MIIFTDCCAzSgAwIBAgIEEjRWjDANBgkqhkiG9w0BAQsFADAnMSUwIwYDVQQDDBxT
UkszX3NoYTI1Nl80MDk2XzY1NTM3X3YzX2NhMCAXDTE5MDUyMjA5NTY0NVoYDzIx
MTkwNDI4MDk1NjQ1WjAqMSgwJgYDVQQDDB9JTUczXzFfc2hhMjU2XzQwOTZfNjU1
MzdfdjNfdXNyMIICIjANBgkqhkiG9w0BAQEFAAOCAg8AMIICCgKCAgEApiao8afK
ZWzMD1cEIV0VTdnYbqGuEk1c+y8QZsk7hqK0qFZSTXCz32bYqdlrzfAjW34GdYxf
2coeasUgBvphFfDO/cIkxYT1TGFrzVfUlQLd8MJWXUcPjSwHsQEYJzWlfD4HXouk
w7Qjs0TJDhqNCF75SX0NRzm3bIwae4kRpH4sz9B3Mxty6owGbIjEUe+Vsv7yTfw4
yMtonqchx3A8CsK7JkbzTUzSt9cIqe3lVZj3OgcZjiuXMp30F5CIiock6wUZNxVe
UIABNBJIJTib+DRThhDCTptlyiIldEd9ck+VoJZTvvXaO0IFZ+d/aKlgVITEgttt
wwdrIUus5TuEN9uyvKx5cFTNBPFOdjSxF8qgBYEnbnvNVHJ2wbGlpuWUbAx04zZS
dR2JKQAE4B1ZcMlp9b+hsnMcIxn9aoSrCLyoKpGKoo65sP0TbWWApi6Qh+snWZ5f
bkV2Tlxl2BPEI/h9UDChw3cLBj4+FiK0C6dgYa4HID6jxPtiS1/IqJVWpWLdoGmZ
oyDTQoNxl0yCihWNIVkE6Xo+8ZgdVfxZawMSPaGn1rSHMK0gfUpFBg8H69iAuTNL
DnEFjEg/AetGliIIqz6lbdM4I0CBVhwcxw6p0C7EyeQZINCnvxAE7Z6jEJ4WwAm1
htj7PPyXsi+Aim/9Z5oz3DpAV3i6YAxYd/MCAwEAAaN7MHkwCQYDVR0TBAIwADAs
BglghkgBhvhCAQ0EHxYdT3BlblNTTCBHZW5lcmF0ZWQgQ2VydGlmaWNhdGUwHQYD
VR0OBBYEFHewmqdMRGSMs9YS0bJMQFVRnEsJMB8GA1UdIwQYMBaAFAAlowa5F7Ff
WxZF7nz9CjfA+zziMA0GCSqGSIb3DQEBCwUAA4ICAQBb5czclHfOnXUF/aM7XnUy
aRiB3NUMxvSDYEauxaI/PIjTAXpR03+6kPOXhfKRkwZgskbNM5fQdIWzu0djuWMQ
mc3w6FaBa2NUx0oowHgznB7RWepepT9bFz9jTjScyf530iuFN6gpuuCbH/yN7FNK
CJ/WqZgr4NXjwCcbCIJRoT3gYFsV3+CYFnJQ+PMhI3jYR10SlOkf9JjCr0eARdXB
7bDdCIAHh9tK9sGfInqZ/vsv0UYlxsDRkZCascejAQhL08GkHIjNYmZbYbTxjkzr
LvE89XoH6X3d98g20PQZ1qFMaHj5669E6MkhdWHfnkLOCyljnoKSFv3Wg64IQhwy
VDL4/qDl6u2IX+SJyweDKV0dQQboWBATmeN45466xLB0usBz81KkIZt4AHiNSw4G
jO9qj7rXozz2TOJouSa8MkSdRLdOXhyZUmEWrszuDonFicd+Vd3RLe9m8Badw3zQ
l60zT5h2/L6sNSuOVQ5/Vu8q8fie7l7SVAxu4vaL9T5ZZTFzrsAOOJViys6oZWPO
DRji3x7Skl+SQpivRn42c2L4q3OpdqJvuCLxCmhxAYXh3q19ap9bMzkToxrvSJ50
eK/B2Zd/Iov/HHZ03Su3EXs1/wG22KRAtXBRbKSYogVD/ldLiXhYueTs0C9zEojy
cW1FFJTwy8SVr8043OIpvQ==
-----END CERTIFICATE-----
