Certificate:
    Data:
        Version: 3 (0x2)
        Serial Number: 305419896 (0x12345678)
        Signature Algorithm: ecdsa-with-SHA256
        Issuer: CN=CA1_sha256_secp256r1_v3_ca
        Validity
            Not Before: Oct 14 22:06:16 2024 GMT
            Not After : Sep 20 22:06:16 2124 GMT
        Subject: CN=SRK1_sha256_secp256r1_v3_usr
        Subject Public Key Info:
            Public Key Algorithm: id-ecPublicKey
                Public-Key: (256 bit)
                pub:
                    04:e9:ac:08:ba:80:9f:d8:03:52:41:63:86:af:d0:
                    2c:bd:83:9f:84:28:bf:d2:34:b1:98:ed:d9:9b:0f:
                    f2:ac:4a:62:c5:11:65:91:a5:74:e5:f6:20:70:77:
                    02:d3:e9:67:a9:b3:09:f0:9a:46:85:c0:ae:44:ec:
                    64:54:2a:23:b4
                ASN1 OID: prime256v1
                NIST CURVE: P-256
        X509v3 extensions:
            X509v3 Basic Constraints: 
                CA:FALSE
            Netscape Comment: 
                OpenSSL Generated Certificate
            X509v3 Subject Key Identifier: 
                9C:BB:97:51:1A:12:69:37:56:87:93:37:DD:44:75:03:5A:0B:D4:20
            X509v3 Authority Key Identifier: 
                BD:68:FC:E4:E7:4F:6C:2E:CE:52:B8:DB:1F:FB:96:A2:22:02:EA:85
    Signature Algorithm: ecdsa-with-SHA256
    Signature Value:
        30:46:02:21:00:ec:47:df:ac:68:df:a9:fb:c3:1a:01:df:95:
        98:23:43:00:b9:e1:7b:0f:6b:87:5a:4b:18:57:c0:7d:8a:b5:
        ee:02:21:00:8c:9a:df:f5:d8:bd:50:a3:3f:c3:24:5d:ab:58:
        c2:08:2f:2b:10:0f:c1:d5:5f:6e:85:10:b0:dd:ea:6d:7a:ae
-----BEGIN CERTIFICATE-----
MIIBvDCCAWGgAwIBAgIEEjRWeDAKBggqhkjOPQQDAjAlMSMwIQYDVQQDFBpDQTFf
c2hhMjU2X3NlY3AyNTZyMV92M19jYTAgFw0yNDEwMTQyMjA2MTZaGA8yMTI0MDky
MDIyMDYxNlowJzElMCMGA1UEAwwcU1JLMV9zaGEyNTZfc2VjcDI1NnIxX3YzX3Vz
cjBZMBMGByqGSM49AgEGCCqGSM49AwEHA0IABOmsCLqAn9gDUkFjhq/QLL2Dn4Qo
v9I0sZjt2ZsP8qxKYsURZZGldOX2IHB3AtPpZ6mzCfCaRoXArkTsZFQqI7SjezB5
MAkGA1UdEwQCMAAwLAYJYIZIAYb4QgENBB8WHU9wZW5TU0wgR2VuZXJhdGVkIENl
cnRpZmljYXRlMB0GA1UdDgQWBBScu5dRGhJpN1aHkzfdRHUDWgvUIDAfBgNVHSME
GDAWgBS9aPzk509sLs5SuNsf+5aiIgLqhTAKBggqhkjOPQQDAgNJADBGAiEA7Eff
rGjfqfvDGgHflZgjQwC54XsPa4daSxhXwH2Kte4CIQCMmt/12L1Qoz/DJF2rWMII
LysQD8HVX26FELDd6m16rg==
-----END CERTIFICATE-----
