Certificate:
    Data:
        Version: 3 (0x2)
        Serial Number: 305419897 (0x12345679)
        Signature Algorithm: ecdsa-with-SHA256
        Issuer: CN=CA1_sha256_secp256r1_v3_ca
        Validity
            Not Before: Oct 14 22:06:16 2024 GMT
            Not After : Sep 20 22:06:16 2124 GMT
        Subject: CN=SRK2_sha256_secp256r1_v3_usr
        Subject Public Key Info:
            Public Key Algorithm: id-ecPublicKey
                Public-Key: (256 bit)
                pub:
                    04:b8:c6:68:c1:75:2e:df:2f:de:6d:7b:a3:db:6c:
                    47:47:a5:a9:d7:80:92:5d:54:1c:91:fe:7a:c2:43:
                    f2:f5:db:ed:09:75:a2:19:e3:54:93:66:b6:af:23:
                    c0:ab:1a:89:dd:7a:9c:88:dc:79:7d:c3:e7:6e:d6:
                    29:87:ac:09:1a
                ASN1 OID: prime256v1
                NIST CURVE: P-256
        X509v3 extensions:
            X509v3 Basic Constraints: 
                CA:FALSE
            Netscape Comment: 
                OpenSSL Generated Certificate
            X509v3 Subject Key Identifier: 
                D1:07:D1:ED:EF:5F:A8:B7:4B:46:04:DF:3D:A7:64:24:63:F8:6D:6B
            X509v3 Authority Key Identifier: 
                BD:68:FC:E4:E7:4F:6C:2E:CE:52:B8:DB:1F:FB:96:A2:22:02:EA:85
    Signature Algorithm: ecdsa-with-SHA256
    Signature Value:
        30:46:02:21:00:9c:e1:0b:5f:e9:e4:8f:b9:a6:e0:12:cb:54:
        c8:ce:ee:ca:e9:45:1a:50:ec:15:fa:65:5e:6e:5d:5d:4b:a4:
        de:02:21:00:8b:d9:57:1e:ea:3f:12:8a:f8:b5:ae:28:9c:cb:
        01:0a:d2:2e:cf:69:7a:fa:a6:8d:e8:9e:30:7f:d4:9c:32:eb
-----BEGIN CERTIFICATE-----
MIIBvDCCAWGgAwIBAgIEEjRWeTAKBggqhkjOPQQDAjAlMSMwIQYDVQQDFBpDQTFf
c2hhMjU2X3NlY3AyNTZyMV92M19jYTAgFw0yNDEwMTQyMjA2MTZaGA8yMTI0MDky
MDIyMDYxNlowJzElMCMGA1UEAwwcU1JLMl9zaGEyNTZfc2VjcDI1NnIxX3YzX3Vz
cjBZMBMGByqGSM49AgEGCCqGSM49AwEHA0IABLjGaMF1Lt8v3m17o9tsR0elqdeA
kl1UHJH+esJD8vXb7Ql1ohnjVJNmtq8jwKsaid16nIjceX3D527WKYesCRqjezB5
MAkGA1UdEwQCMAAwLAYJYIZIAYb4QgENBB8WHU9wZW5TU0wgR2VuZXJhdGVkIENl
cnRpZmljYXRlMB0GA1UdDgQWBBTRB9Ht71+ot0tGBN89p2QkY/htazAfBgNVHSME
GDAWgBS9aPzk509sLs5SuNsf+5aiIgLqhTAKBggqhkjOPQQDAgNJADBGAiEAnOEL
X+nkj7mm4BLLVMjO7srpRRpQ7BX6ZV5uXV1LpN4CIQCL2Vce6j8Sivi1riicywEK
0i7PaXr6po3onjB/1Jwy6w==
-----END CERTIFICATE-----
