Certificate:
    Data:
        Version: 3 (0x2)
        Serial Number: 305419899 (0x1234567b)
        Signature Algorithm: ecdsa-with-SHA256
        Issuer: CN=CA1_sha256_secp256r1_v3_ca
        Validity
            Not Before: Oct 14 22:06:16 2024 GMT
            Not After : Sep 20 22:06:16 2124 GMT
        Subject: CN=SRK4_sha256_secp256r1_v3_usr
        Subject Public Key Info:
            Public Key Algorithm: id-ecPublicKey
                Public-Key: (256 bit)
                pub:
                    04:54:98:32:69:99:0b:fb:75:15:f2:01:75:50:e4:
                    99:23:ac:5b:8a:a1:26:0f:4c:70:03:6f:1f:9b:f5:
                    a5:ca:94:9c:48:f9:72:07:ce:57:ac:86:48:c8:26:
                    10:ad:18:4c:6d:be:b6:3d:5c:d8:f3:7b:ca:64:2c:
                    5e:3a:44:3c:25
                ASN1 OID: prime256v1
                NIST CURVE: P-256
        X509v3 extensions:
            X509v3 Basic Constraints: 
                CA:FALSE
            Netscape Comment: 
                OpenSSL Generated Certificate
            X509v3 Subject Key Identifier: 
                65:1B:AB:1E:9E:3A:23:A5:6A:FE:78:71:4F:2D:D0:73:1C:34:10:60
            X509v3 Authority Key Identifier: 
                BD:68:FC:E4:E7:4F:6C:2E:CE:52:B8:DB:1F:FB:96:A2:22:02:EA:85
    Signature Algorithm: ecdsa-with-SHA256
    Signature Value:
        30:45:02:20:1e:6b:03:1d:c7:6d:40:84:6b:78:e7:e6:33:18:
        20:9e:67:55:24:c9:18:69:59:71:17:6e:40:f6:bc:1d:36:44:
        02:21:00:b8:d8:79:96:4e:37:de:18:37:6a:16:64:f6:06:64:
        f8:42:bc:5a:85:84:02:15:aa:5e:1f:eb:ad:e9:62:f8:a1
-----BEGIN CERTIFICATE-----
MIIBuzCCAWGgAwIBAgIEEjRWezAKBggqhkjOPQQDAjAlMSMwIQYDVQQDFBpDQTFf
c2hhMjU2X3NlY3AyNTZyMV92M19jYTAgFw0yNDEwMTQyMjA2MTZaGA8yMTI0MDky
MDIyMDYxNlowJzElMCMGA1UEAwwcU1JLNF9zaGEyNTZfc2VjcDI1NnIxX3YzX3Vz
cjBZMBMGByqGSM49AgEGCCqGSM49AwEHA0IABFSYMmmZC/t1FfIBdVDkmSOsW4qh
Jg9McANvH5v1pcqUnEj5cgfOV6yGSMgmEK0YTG2+tj1c2PN7ymQsXjpEPCWjezB5
MAkGA1UdEwQCMAAwLAYJYIZIAYb4QgENBB8WHU9wZW5TU0wgR2VuZXJhdGVkIENl
cnRpZmljYXRlMB0GA1UdDgQWBBRlG6senjojpWr+eHFPLdBzHDQQYDAfBgNVHSME
GDAWgBS9aPzk509sLs5SuNsf+5aiIgLqhTAKBggqhkjOPQQDAgNIADBFAiAeawMd
x21AhGt45+YzGCCeZ1UkyRhpWXEXbkD2vB02RAIhALjYeZZON94YN2oWZPYGZPhC
vFqFhAIVql4f663pYvih
-----END CERTIFICATE-----
