Certificate:
    Data:
        Version: 3 (0x2)
        Serial Number: 305419898 (0x1234567a)
        Signature Algorithm: ecdsa-with-SHA384
        Issuer: CN=CA1_sha384_secp384r1_v3_ca
        Validity
            Not Before: Oct 30 14:16:48 2024 GMT
            Not After : Oct  6 14:16:48 2124 GMT
        Subject: CN=SRK3_sha384_secp384r1_v3_usr
        Subject Public Key Info:
            Public Key Algorithm: id-ecPublicKey
                Public-Key: (384 bit)
                pub:
                    04:5e:64:7b:16:9d:a6:3e:82:1a:77:99:fe:1c:1d:
                    07:d3:1c:c7:fe:50:7a:a3:ba:f0:4a:51:91:7b:35:
                    79:10:a3:ef:f2:08:0f:ba:a1:fe:5d:b8:7e:94:01:
                    e2:51:cd:cd:ee:bd:36:11:a4:ec:f9:b0:0b:2c:05:
                    4d:22:a0:41:92:7e:fb:bd:1c:ad:4c:2f:04:68:c4:
                    d8:82:20:74:45:ce:dc:74:72:bf:18:d3:ee:8a:dd:
                    d1:f6:8a:57:81:87:74
                ASN1 OID: secp384r1
                NIST CURVE: P-384
        X509v3 extensions:
            X509v3 Basic Constraints: 
                CA:FALSE
            Netscape Comment: 
                OpenSSL Generated Certificate
            X509v3 Subject Key Identifier: 
                32:0C:71:18:72:29:B6:9A:F5:E6:EE:59:37:AA:42:DF:B2:D6:50:05
            X509v3 Authority Key Identifier: 
                C1:89:87:25:2E:15:53:B4:09:CF:8D:A1:AC:72:E1:7D:CA:7F:4D:AB
    Signature Algorithm: ecdsa-with-SHA384
    Signature Value:
        30:65:02:31:00:cb:79:58:59:68:f4:fb:a6:b3:17:ac:c7:33:
        bd:36:f2:9a:16:5a:34:92:b7:e2:67:8b:6f:d7:5d:9b:57:b0:
        5c:d1:e1:3b:94:13:23:56:07:d3:b9:97:44:f9:84:3e:9e:02:
        30:04:bd:95:57:e8:d3:bd:d9:ba:d0:90:e1:e4:94:59:7d:0b:
        aa:b9:a5:01:a9:94:1b:ae:ef:7b:ad:aa:b9:14:04:0b:6d:83:
        95:f3:b8:ed:4c:5d:cd:21:42:0d:f8:59:24
-----BEGIN CERTIFICATE-----
MIIB+DCCAX6gAwIBAgIEEjRWejAKBggqhkjOPQQDAzAlMSMwIQYDVQQDFBpDQTFf
c2hhMzg0X3NlY3AzODRyMV92M19jYTAgFw0yNDEwMzAxNDE2NDhaGA8yMTI0MTAw
NjE0MTY0OFowJzElMCMGA1UEAwwcU1JLM19zaGEzODRfc2VjcDM4NHIxX3YzX3Vz
cjB2MBAGByqGSM49AgEGBSuBBAAiA2IABF5kexadpj6CGneZ/hwdB9Mcx/5QeqO6
8EpRkXs1eRCj7/IID7qh/l24fpQB4lHNze69NhGk7PmwCywFTSKgQZJ++70crUwv
BGjE2IIgdEXO3HRyvxjT7ord0faKV4GHdKN7MHkwCQYDVR0TBAIwADAsBglghkgB
hvhCAQ0EHxYdT3BlblNTTCBHZW5lcmF0ZWQgQ2VydGlmaWNhdGUwHQYDVR0OBBYE
FDIMcRhyKbaa9ebuWTeqQt+y1lAFMB8GA1UdIwQYMBaAFMGJhyUuFVO0Cc+Noaxy
4X3Kf02rMAoGCCqGSM49BAMDA2gAMGUCMQDLeVhZaPT7prMXrMczvTbymhZaNJK3
4meLb9ddm1ewXNHhO5QTI1YH07mXRPmEPp4CMAS9lVfo073ZutCQ4eSUWX0Lqrml
AamUG67ve62quRQEC22DlfO47UxdzSFCDfhZJA==
-----END CERTIFICATE-----
