Certificate:
    Data:
        Version: 3 (0x2)
        Serial Number: 305419897 (0x12345679)
        Signature Algorithm: ecdsa-with-SHA384
        Issuer: CN=CA1_sha384_secp384r1_v3_ca
        Validity
            Not Before: Oct 30 14:16:48 2024 GMT
            Not After : Oct  6 14:16:48 2124 GMT
        Subject: CN=SRK2_sha384_secp384r1_v3_usr
        Subject Public Key Info:
            Public Key Algorithm: id-ecPublicKey
                Public-Key: (384 bit)
                pub:
                    04:b9:1d:c3:5a:15:c4:f3:ef:0f:d2:e9:d7:bf:10:
                    a9:88:3d:b6:20:ca:a5:b6:ae:ee:ad:7d:f4:e6:2d:
                    63:a1:ab:43:66:6c:28:c0:04:20:71:6a:8b:81:53:
                    91:56:15:f0:bb:78:a5:14:bb:42:eb:09:7d:7a:83:
                    74:f6:9d:75:a2:16:58:4a:44:ae:51:6d:88:32:c1:
                    3c:d2:e9:1d:9d:7e:21:59:24:3e:c5:77:17:98:f5:
                    fe:15:d5:21:60:ba:78
                ASN1 OID: secp384r1
                NIST CURVE: P-384
        X509v3 extensions:
            X509v3 Basic Constraints: 
                CA:FALSE
            Netscape Comment: 
                OpenSSL Generated Certificate
            X509v3 Subject Key Identifier: 
                19:E1:A9:2A:85:0D:DC:13:57:9D:CA:8B:B8:D2:32:E0:B0:D2:54:65
            X509v3 Authority Key Identifier: 
                C1:89:87:25:2E:15:53:B4:09:CF:8D:A1:AC:72:E1:7D:CA:7F:4D:AB
    Signature Algorithm: ecdsa-with-SHA384
    Signature Value:
        30:65:02:31:00:e7:b7:53:40:26:d9:cb:e3:b2:89:fc:a0:de:
        96:a1:c4:dc:49:99:d5:28:9f:4c:f1:2d:ef:65:0c:9e:8b:54:
        98:ff:1b:ae:c9:da:59:fd:0a:1e:57:e3:67:b4:ab:00:9c:02:
        30:0f:28:35:0b:91:39:dd:12:48:cb:5a:fb:fa:3a:aa:75:9b:
        c4:1c:58:f0:08:f9:c3:36:fc:56:28:f4:a4:88:a3:cd:6d:f0:
        51:fe:aa:c4:7c:79:b6:de:ae:4f:48:22:fa
-----BEGIN CERTIFICATE-----
MIIB+DCCAX6gAwIBAgIEEjRWeTAKBggqhkjOPQQDAzAlMSMwIQYDVQQDFBpDQTFf
c2hhMzg0X3NlY3AzODRyMV92M19jYTAgFw0yNDEwMzAxNDE2NDhaGA8yMTI0MTAw
NjE0MTY0OFowJzElMCMGA1UEAwwcU1JLMl9zaGEzODRfc2VjcDM4NHIxX3YzX3Vz
cjB2MBAGByqGSM49AgEGBSuBBAAiA2IABLkdw1oVxPPvD9Lp178QqYg9tiDKpbau
7q199OYtY6GrQ2ZsKMAEIHFqi4FTkVYV8Lt4pRS7QusJfXqDdPaddaIWWEpErlFt
iDLBPNLpHZ1+IVkkPsV3F5j1/hXVIWC6eKN7MHkwCQYDVR0TBAIwADAsBglghkgB
hvhCAQ0EHxYdT3BlblNTTCBHZW5lcmF0ZWQgQ2VydGlmaWNhdGUwHQYDVR0OBBYE
FBnhqSqFDdwTV53Ki7jSMuCw0lRlMB8GA1UdIwQYMBaAFMGJhyUuFVO0Cc+Noaxy
4X3Kf02rMAoGCCqGSM49BAMDA2gAMGUCMQDnt1NAJtnL47KJ/KDelqHE3EmZ1Sif
TPEt72UMnotUmP8brsnaWf0KHlfjZ7SrAJwCMA8oNQuROd0SSMta+/o6qnWbxBxY
8Aj5wzb8Vij0pIijzW3wUf6qxHx5tt6uT0gi+g==
-----END CERTIFICATE-----
