Certificate:
    Data:
        Version: 3 (0x2)
        Serial Number: 305419896 (0x12345678)
        Signature Algorithm: ecdsa-with-SHA384
        Issuer: CN=CA1_sha384_secp384r1_v3_ca
        Validity
            Not Before: Oct 30 14:16:48 2024 GMT
            Not After : Oct  6 14:16:48 2124 GMT
        Subject: CN=SRK1_sha384_secp384r1_v3_usr
        Subject Public Key Info:
            Public Key Algorithm: id-ecPublicKey
                Public-Key: (384 bit)
                pub:
                    04:ce:55:05:70:d3:de:98:6c:e7:6a:71:42:45:f0:
                    96:c3:a4:92:5d:f1:58:40:d9:6f:76:8b:a2:cc:2c:
                    0a:02:78:d4:fb:1f:63:9d:36:7c:12:61:f3:58:e4:
                    5a:f9:8a:4f:63:12:eb:51:a3:6d:36:37:9c:e6:a3:
                    50:f7:47:68:ae:6e:48:49:4d:a3:1b:06:77:9b:26:
                    4d:3b:cd:0e:88:1a:d5:83:21:6a:a6:fa:ca:2a:cd:
                    6d:77:2f:71:bd:49:6e
                ASN1 OID: secp384r1
                NIST CURVE: P-384
        X509v3 extensions:
            X509v3 Basic Constraints: 
                CA:FALSE
            Netscape Comment: 
                OpenSSL Generated Certificate
            X509v3 Subject Key Identifier: 
                02:53:FA:ED:7E:6C:C4:70:20:34:57:21:1B:EE:12:99:E2:0A:C5:87
            X509v3 Authority Key Identifier: 
                C1:89:87:25:2E:15:53:B4:09:CF:8D:A1:AC:72:E1:7D:CA:7F:4D:AB
    Signature Algorithm: ecdsa-with-SHA384
    Signature Value:
        30:65:02:30:2a:0a:32:64:54:11:b3:1f:70:44:f0:fa:da:b9:
        ae:ba:ac:fd:44:9b:d4:8b:5b:ab:78:a7:10:cd:14:bb:af:0d:
        77:33:45:4a:0f:5a:fa:9b:fa:6b:9a:b8:c0:c3:92:9d:02:31:
        00:a0:0d:d9:9f:de:9d:3a:56:77:48:b9:9d:0a:bb:88:9b:35:
        e7:d3:2e:d0:69:66:7c:38:1f:26:ea:5a:3c:2a:19:f8:1b:0c:
        d0:97:ff:8d:fa:91:af:77:2e:70:45:55:5a
-----BEGIN CERTIFICATE-----
MIIB+DCCAX6gAwIBAgIEEjRWeDAKBggqhkjOPQQDAzAlMSMwIQYDVQQDFBpDQTFf
c2hhMzg0X3NlY3AzODRyMV92M19jYTAgFw0yNDEwMzAxNDE2NDhaGA8yMTI0MTAw
NjE0MTY0OFowJzElMCMGA1UEAwwcU1JLMV9zaGEzODRfc2VjcDM4NHIxX3YzX3Vz
cjB2MBAGByqGSM49AgEGBSuBBAAiA2IABM5VBXDT3phs52pxQkXwlsOkkl3xWEDZ
b3aLoswsCgJ41PsfY502fBJh81jkWvmKT2MS61GjbTY3nOajUPdHaK5uSElNoxsG
d5smTTvNDoga1YMhaqb6yirNbXcvcb1JbqN7MHkwCQYDVR0TBAIwADAsBglghkgB
hvhCAQ0EHxYdT3BlblNTTCBHZW5lcmF0ZWQgQ2VydGlmaWNhdGUwHQYDVR0OBBYE
FAJT+u1+bMRwIDRXIRvuEpniCsWHMB8GA1UdIwQYMBaAFMGJhyUuFVO0Cc+Noaxy
4X3Kf02rMAoGCCqGSM49BAMDA2gAMGUCMCoKMmRUEbMfcETw+tq5rrqs/USb1Itb
q3inEM0Uu68NdzNFSg9a+pv6a5q4wMOSnQIxAKAN2Z/enTpWd0i5nQq7iJs159Mu
0GlmfDgfJupaPCoZ+BsM0Jf/jfqRr3cucEVVWg==
-----END CERTIFICATE-----
