Certificate:
    Data:
        Version: 3 (0x2)
        Serial Number: 305419909 (0x12345685)
        Signature Algorithm: sha256WithRSAEncryption
        Issuer: CN=SRK1_sha256_4096_65537_v3_ca
        Validity
            Not Before: May 22 09:56:41 2019 GMT
            Not After : Apr 28 09:56:41 2119 GMT
        Subject: CN=CSF1_1_sha256_4096_65537_v3_usr
        Subject Public Key Info:
            Public Key Algorithm: rsaEncryption
                RSA Public-Key: (4096 bit)
                Modulus:
                    00:d4:85:18:cc:43:b7:69:86:c2:37:20:d7:22:37:
                    2a:61:f5:a0:8e:3f:1e:be:53:88:c4:3e:bd:b7:cd:
                    8b:31:4d:af:86:a1:5a:58:c3:48:85:7e:ab:04:e1:
                    ce:d3:48:c6:6e:f5:de:43:bb:ba:d2:bb:5d:08:a5:
                    b8:28:e4:60:1a:9d:83:5f:b5:7b:92:23:cb:bd:bc:
                    67:e0:d0:cf:b1:ee:9d:4b:7c:ea:4a:1d:4d:3a:ff:
                    a0:16:4d:df:bf:24:94:16:6d:b1:f6:c9:6b:57:d3:
                    57:46:91:a1:da:62:92:f9:14:01:4a:f2:23:e4:8f:
                    78:ed:e6:56:c6:5e:c7:cc:c7:5b:03:99:5d:52:40:
                    d3:03:40:9f:eb:27:ab:67:03:d0:7d:b5:5f:db:0a:
                    91:4a:02:73:ea:4b:59:0e:e7:8c:62:68:68:9b:b2:
                    b1:e6:01:51:2d:6b:45:1d:d6:e4:56:66:49:fb:92:
                    5c:91:3f:f1:43:98:3d:d7:4f:b0:3b:5a:01:f1:32:
                    d2:8c:43:9e:53:b3:cd:56:4f:31:f6:f4:26:df:6f:
                    5a:50:86:b6:c2:89:bf:bb:76:6b:11:55:0b:1c:67:
                    f9:e0:d3:6a:5b:41:d6:1a:70:fd:bd:4c:31:3d:79:
                    76:ea:1a:cf:8f:0d:33:79:ae:69:07:ed:c0:73:9b:
                    fb:5f:57:ac:64:5e:b6:7d:b2:57:6e:a9:0f:30:cf:
                    7c:18:60:fc:1b:6e:e0:e4:1d:75:84:1a:cb:fe:a7:
                    41:cd:8d:33:db:e7:2d:58:10:8a:75:28:6b:ba:6c:
                    f6:d3:96:ef:a5:48:96:92:a2:92:35:08:28:66:5c:
                    e2:bb:52:5d:ad:8f:36:ae:ca:e4:54:2e:c8:03:3c:
                    e2:49:69:b6:2a:c3:3f:f5:69:05:75:19:6c:da:0e:
                    26:39:d9:6f:dc:6c:b9:2c:4d:24:73:95:94:9a:07:
                    5c:15:41:81:78:d7:ea:a7:35:2e:95:dd:70:81:cf:
                    e2:18:c3:3d:dd:5e:15:41:f4:5f:00:a8:69:e9:fe:
                    03:7b:e0:69:c7:be:fc:48:c7:ec:ee:c6:17:6e:59:
                    7b:75:f2:12:5f:78:dc:38:f2:7d:e2:d7:05:dd:b9:
                    bf:bc:bd:40:d9:65:f2:79:91:3d:27:f0:c9:39:c6:
                    c5:47:e0:14:19:8c:f6:6e:ac:83:f1:16:15:c2:a1:
                    17:d1:c9:2c:a2:6b:08:c5:57:40:b0:38:39:b0:ff:
                    55:32:94:50:87:bd:43:68:63:1d:ec:90:d7:cc:c5:
                    99:23:b3:1c:15:0a:2e:0f:80:84:a2:1f:45:9a:d3:
                    37:fd:d3:2f:ac:12:45:11:3f:83:b5:4a:9c:37:c9:
                    b2:8a:19
                Exponent: 65537 (0x10001)
        X509v3 extensions:
            X509v3 Basic Constraints: 
                CA:FALSE
            Netscape Comment: 
                OpenSSL Generated Certificate
            X509v3 Subject Key Identifier: 
                98:36:50:30:15:F4:04:9F:E0:A2:80:EA:A2:0E:61:19:24:1F:6A:86
            X509v3 Authority Key Identifier: 
                keyid:00:C6:29:28:41:1D:F7:C7:53:97:B4:BC:BD:A4:93:5B:89:9F:3D:41

    Signature Algorithm: sha256WithRSAEncryption
         53:4b:eb:1e:ee:fb:d3:b9:d0:ca:5b:79:ab:d1:a6:06:07:7e:
         92:6c:7c:24:6e:10:d5:3f:c9:53:1d:cc:48:a8:24:4a:4a:41:
         4c:4b:6f:1f:ed:04:45:b0:8f:cc:a0:e7:21:0d:a0:be:0c:58:
         fb:80:88:f4:57:d0:b0:88:e7:ec:3d:1e:80:ef:8c:4c:9a:96:
         85:10:24:6b:ff:1e:95:25:07:6a:ff:fb:23:1b:3a:35:41:ca:
         a8:02:d1:9d:68:de:07:6b:02:50:63:a2:b2:4a:2f:46:75:33:
         e5:f2:9c:a2:71:2d:a4:42:5b:a0:aa:51:b2:61:44:39:b6:46:
         d8:5a:28:ea:dc:d5:47:c7:cc:b8:b4:0d:2f:4b:b6:89:0f:e4:
         f7:d7:1c:b1:6a:6a:62:bd:1b:be:8e:22:9a:e4:9e:07:12:b7:
         a0:de:d0:dd:b0:74:23:4c:c0:7d:dc:92:a6:bd:11:b3:4b:a1:
         8b:31:48:f7:db:86:b2:75:75:e6:f1:a1:ef:f0:4c:1b:5e:36:
         0d:ab:77:db:ad:b6:5a:dc:83:e8:99:cb:4b:cb:9b:55:d1:8d:
         dd:5a:26:3e:d3:dc:be:e6:85:74:10:27:ec:80:3b:3d:44:11:
         b4:95:b4:f0:f5:9d:2d:6a:e1:94:eb:1c:be:33:b0:40:f9:06:
         28:48:95:3c:83:ed:36:ec:a4:ad:93:2d:37:26:e7:9a:65:4e:
         72:23:0f:c5:1f:21:01:aa:0b:2e:a5:da:cf:65:15:97:0e:aa:
         0d:58:f9:18:44:e1:b4:86:2e:eb:eb:f7:0d:b3:5b:87:1b:ee:
         89:10:e7:c7:1b:f7:bc:fc:f9:73:8a:08:47:9a:d4:bd:a2:b8:
         f4:25:07:8d:6b:59:53:82:c2:b4:fa:92:28:59:84:4f:b5:5b:
         d0:9a:8d:17:db:5d:70:7b:34:10:2b:6e:0a:78:59:a7:b9:7d:
         a1:e5:b5:d2:bc:1a:5f:48:46:aa:58:08:34:dd:6b:01:9f:8d:
         56:95:fa:9e:ba:53:78:0b:90:37:0f:d6:94:ec:f3:ea:a0:62:
         d3:0e:a5:84:d6:e8:25:09:b6:4f:11:17:b2:d4:9e:23:c0:d3:
         dd:10:e8:6e:bb:85:5b:4b:ec:df:65:83:59:86:66:da:7e:25:
         95:c6:ac:1e:2c:0b:c8:07:a3:ec:e9:d0:18:dd:71:0e:d6:f2:
         6e:de:8f:d1:43:2e:d8:8b:41:86:c4:e2:6b:d0:0c:a4:1f:a1:
         14:c2:61:0c:02:bf:18:e0:87:84:60:9c:4c:cb:67:8c:59:bc:
         f5:4a:5f:0f:fc:93:9d:0f:a6:64:1d:99:3e:00:eb:8c:57:39:
         5f:0a:eb:b3:63:51:6c:c0
-----BEGIN CERTIFICATE-----
MIIFTDCCAzSgAwIBAgIEEjRWhTANBgkqhkiG9w0BAQsFADAnMSUwIwYDVQQDDBxT
UksxX3NoYTI1Nl80MDk2XzY1NTM3X3YzX2NhMCAXDTE5MDUyMjA5NTY0MVoYDzIx
MTkwNDI4MDk1NjQxWjAqMSgwJgYDVQQDDB9DU0YxXzFfc2hhMjU2XzQwOTZfNjU1
MzdfdjNfdXNyMIICIjANBgkqhkiG9w0BAQEFAAOCAg8AMIICCgKCAgEA1IUYzEO3
aYbCNyDXIjcqYfWgjj8evlOIxD69t82LMU2vhqFaWMNIhX6rBOHO00jGbvXeQ7u6
0rtdCKW4KORgGp2DX7V7kiPLvbxn4NDPse6dS3zqSh1NOv+gFk3fvySUFm2x9slr
V9NXRpGh2mKS+RQBSvIj5I947eZWxl7HzMdbA5ldUkDTA0Cf6yerZwPQfbVf2wqR
SgJz6ktZDueMYmhom7Kx5gFRLWtFHdbkVmZJ+5JckT/xQ5g910+wO1oB8TLSjEOe
U7PNVk8x9vQm329aUIa2wom/u3ZrEVULHGf54NNqW0HWGnD9vUwxPXl26hrPjw0z
ea5pB+3Ac5v7X1esZF62fbJXbqkPMM98GGD8G27g5B11hBrL/qdBzY0z2+ctWBCK
dShrumz205bvpUiWkqKSNQgoZlziu1JdrY82rsrkVC7IAzziSWm2KsM/9WkFdRls
2g4mOdlv3Gy5LE0kc5WUmgdcFUGBeNfqpzUuld1wgc/iGMM93V4VQfRfAKhp6f4D
e+Bpx778SMfs7sYXbll7dfISX3jcOPJ94tcF3bm/vL1A2WXyeZE9J/DJOcbFR+AU
GYz2bqyD8RYVwqEX0cksomsIxVdAsDg5sP9VMpRQh71DaGMd7JDXzMWZI7McFQou
D4CEoh9FmtM3/dMvrBJFET+DtUqcN8myihkCAwEAAaN7MHkwCQYDVR0TBAIwADAs
BglghkgBhvhCAQ0EHxYdT3BlblNTTCBHZW5lcmF0ZWQgQ2VydGlmaWNhdGUwHQYD
VR0OBBYEFJg2UDAV9ASf4KKA6qIOYRkkH2qGMB8GA1UdIwQYMBaAFADGKShBHffH
U5e0vL2kk1uJnz1BMA0GCSqGSIb3DQEBCwUAA4ICAQBTS+se7vvTudDKW3mr0aYG
B36SbHwkbhDVP8lTHcxIqCRKSkFMS28f7QRFsI/MoOchDaC+DFj7gIj0V9CwiOfs
PR6A74xMmpaFECRr/x6VJQdq//sjGzo1QcqoAtGdaN4HawJQY6KySi9GdTPl8pyi
cS2kQlugqlGyYUQ5tkbYWijq3NVHx8y4tA0vS7aJD+T31xyxampivRu+jiKa5J4H
Ereg3tDdsHQjTMB93JKmvRGzS6GLMUj324aydXXm8aHv8EwbXjYNq3fbrbZa3IPo
mctLy5tV0Y3dWiY+09y+5oV0ECfsgDs9RBG0lbTw9Z0tauGU6xy+M7BA+QYoSJU8
g+027KStky03JueaZU5yIw/FHyEBqgsupdrPZRWXDqoNWPkYROG0hi7r6/cNs1uH
G+6JEOfHG/e8/PlzighHmtS9orj0JQeNa1lTgsK0+pIoWYRPtVvQmo0X211wezQQ
K24KeFmnuX2h5bXSvBpfSEaqWAg03WsBn41WlfqeulN4C5A3D9aU7PPqoGLTDqWE
1uglCbZPERey1J4jwNPdEOhuu4VbS+zfZYNZhmbafiWVxqweLAvIB6Ps6dAY3XEO
1vJu3o/RQy7Yi0GGxOJr0AykH6EUwmEMAr8Y4IeEYJxMy2eMWbz1Sl8P/JOdD6Zk
HZk+AOuMVzlfCuuzY1FswA==
-----END CERTIFICATE-----
