Certificate:
    Data:
        Version: 3 (0x2)
        Serial Number: 305419912 (0x12345688)
        Signature Algorithm: sha256WithRSAEncryption
        Issuer: CN=SRK2_sha256_4096_65537_v3_ca
        Validity
            Not Before: May 22 09:56:42 2019 GMT
            Not After : Apr 28 09:56:42 2119 GMT
        Subject: CN=CSF2_1_sha256_4096_65537_v3_usr
        Subject Public Key Info:
            Public Key Algorithm: rsaEncryption
                RSA Public-Key: (4096 bit)
                Modulus:
                    00:be:ce:1b:f9:4a:2a:20:91:fc:f3:7c:a9:b6:03:
                    26:ec:e4:ef:de:e7:95:32:20:60:5a:52:71:03:1d:
                    13:dd:e4:cc:a9:a6:77:69:e5:74:d3:46:ca:4f:52:
                    79:6a:e2:63:3a:cf:cf:9b:6a:38:06:e7:20:20:ee:
                    06:11:2d:3e:b2:86:af:dc:da:bd:79:65:a8:52:b5:
                    9d:46:ff:4f:fa:cb:f5:d4:b8:ec:1f:f9:cc:52:55:
                    bb:0a:ca:6d:a2:76:ed:43:fa:e5:12:b7:9d:29:72:
                    48:10:5b:bd:52:01:b9:91:4e:a4:87:18:fc:ce:5b:
                    78:01:35:be:cc:3c:58:4f:df:66:fb:6b:6f:ea:5a:
                    93:96:fe:60:3f:96:ed:f4:a4:1d:8d:d2:80:52:80:
                    9e:ab:b1:53:71:09:53:85:72:26:c8:0d:51:e8:36:
                    86:ae:3d:58:4f:e8:7e:92:af:2d:fd:94:88:e1:47:
                    bf:08:e1:76:fc:ce:45:c9:a7:c9:85:7b:da:f9:9e:
                    f9:56:8e:d8:5c:76:91:70:ec:eb:96:23:91:9d:9e:
                    c4:01:19:29:f1:6a:27:31:49:71:34:b4:8f:a0:01:
                    74:1a:8f:ee:cd:40:87:78:6a:81:73:50:fa:1c:ac:
                    d0:4e:df:8a:9c:8c:86:2f:a3:63:68:e7:2c:bf:90:
                    b6:85:8e:19:0a:ac:36:15:1e:6d:9b:f1:14:b3:13:
                    08:05:77:7b:59:8b:80:e1:53:ff:bc:b1:12:d7:ec:
                    e7:96:ad:34:6b:88:44:96:44:e3:51:38:ec:55:79:
                    a2:c3:4d:17:bb:fd:84:3c:e6:10:4e:af:aa:0c:1f:
                    78:b1:8a:bc:58:fe:d5:4f:bd:04:ba:12:6c:6a:e2:
                    d9:c4:84:8e:cb:83:39:ca:8d:d7:6c:08:bf:a0:4e:
                    57:cb:0a:27:e7:ce:cc:05:24:a8:93:2d:1a:fd:e9:
                    c2:fb:48:bd:ac:04:c9:06:27:f1:0f:3a:6f:ff:8c:
                    14:ae:1d:ff:a0:dc:b3:6c:48:b3:ff:b5:36:9a:5f:
                    8f:5e:d6:27:18:7f:4a:84:70:0a:7f:87:91:ff:03:
                    15:97:8e:92:95:0a:9f:d5:ff:e8:6d:78:66:d0:d9:
                    70:d3:0a:34:3f:d8:0c:18:22:cc:86:40:ba:8c:94:
                    f9:da:a1:a6:32:fb:28:6b:06:1e:67:64:cd:e2:7a:
                    9f:9e:45:d4:94:88:5a:13:de:b6:6d:8e:b1:fe:2d:
                    9d:c1:d2:c3:93:1a:21:aa:f6:2c:23:2a:89:f3:59:
                    57:74:0f:ec:d1:ee:c9:bd:92:69:a5:da:3a:47:e0:
                    16:74:0d:f7:db:5e:c0:7a:e4:fd:d4:02:01:63:c3:
                    a5:8e:93
                Exponent: 65537 (0x10001)
        X509v3 extensions:
            X509v3 Basic Constraints: 
                CA:FALSE
            Netscape Comment: 
                OpenSSL Generated Certificate
            X509v3 Subject Key Identifier: 
                E5:56:FD:CC:00:34:D7:0A:85:87:30:DE:BA:D4:8C:06:EF:70:60:B9
            X509v3 Authority Key Identifier: 
                keyid:24:38:68:73:A8:26:C9:E6:5B:A5:0B:E8:4C:2B:50:0F:A0:05:A3:A4

    Signature Algorithm: sha256WithRSAEncryption
         7c:bc:0e:5e:0c:48:20:83:63:43:38:a5:ef:69:21:16:67:34:
         d0:97:54:bb:ea:62:f0:3e:25:c5:b3:5d:0b:a2:bf:17:31:30:
         19:20:34:66:4a:dd:85:33:35:64:77:be:24:a7:c6:e4:44:ce:
         0d:1c:2f:e4:b9:d1:e0:92:b6:1c:1a:41:93:22:c3:3d:3b:70:
         ad:2f:73:51:ea:d2:59:b2:88:c9:8b:b6:b3:8a:82:6a:d1:0b:
         ed:a4:a5:bd:bf:58:bc:72:6e:29:97:11:f3:b1:dc:77:e3:2d:
         cf:fc:db:4c:fa:23:fd:72:b7:f3:c8:8d:6b:64:2d:00:06:33:
         0d:ec:bb:75:85:02:34:28:5e:f5:6f:e2:1c:06:ea:33:56:ad:
         1e:e3:9f:7c:51:a7:98:71:94:0e:92:ef:57:b7:64:b9:d8:d0:
         de:8e:d6:69:fb:c0:d5:30:3f:2b:92:32:38:98:46:1c:89:2c:
         8b:bc:06:2f:95:88:90:90:97:03:cf:29:c5:78:2e:c5:6f:8a:
         7e:61:1b:ce:92:97:7b:00:53:75:1f:fb:d7:ad:0b:9d:20:d6:
         38:4d:5b:1f:59:5e:d8:fe:77:eb:ed:20:a7:95:f9:e3:8c:10:
         57:38:92:11:a6:c1:84:09:69:9c:23:86:40:f2:ad:4c:3d:fe:
         eb:f4:27:3b:57:cd:c1:a6:83:f3:29:99:07:5a:1c:71:66:22:
         a4:a7:ae:78:b7:3b:e3:7d:37:9a:f8:75:6c:75:42:a9:1b:97:
         43:c0:d4:6b:70:d6:40:f2:98:ce:5c:8b:79:a2:0d:75:54:b5:
         29:06:21:70:6a:7c:38:f6:42:e2:e8:14:3f:2c:78:6f:c9:b8:
         e4:e9:59:a6:e6:d3:aa:b8:33:0b:de:74:d0:7b:74:a8:65:14:
         1d:72:93:7c:67:d2:90:36:ab:94:00:09:6b:52:69:ac:20:74:
         1f:f5:a2:5c:03:67:51:1f:5c:da:6b:ba:cf:82:b2:ed:bf:83:
         c3:de:45:9b:df:80:09:d2:24:86:62:9c:bf:36:30:32:6c:2a:
         5b:0f:c0:0f:4c:e1:af:11:51:04:33:36:84:59:0a:70:be:b2:
         0c:97:14:cd:a8:1f:a7:76:5d:91:5f:45:43:6f:df:50:c5:4e:
         28:e9:e3:70:55:e6:70:7e:ea:ad:bf:b7:cb:ba:d4:d6:5e:f8:
         e3:87:23:f0:f1:72:62:26:bf:fe:46:82:3a:5e:ae:e5:80:01:
         49:90:b3:b1:23:12:a6:99:75:05:8a:c9:2d:5d:27:53:26:e5:
         ef:29:ae:8d:5f:5c:71:65:fb:e6:ab:88:ed:12:3d:a3:2f:8f:
         6e:ad:0e:e2:1f:45:a7:d1
-----BEGIN CERTIFICATE-----
MIIFTDCCAzSgAwIBAgIEEjRWiDANBgkqhkiG9w0BAQsFADAnMSUwIwYDVQQDDBxT
UksyX3NoYTI1Nl80MDk2XzY1NTM3X3YzX2NhMCAXDTE5MDUyMjA5NTY0MloYDzIx
MTkwNDI4MDk1NjQyWjAqMSgwJgYDVQQDDB9DU0YyXzFfc2hhMjU2XzQwOTZfNjU1
MzdfdjNfdXNyMIICIjANBgkqhkiG9w0BAQEFAAOCAg8AMIICCgKCAgEAvs4b+Uoq
IJH883yptgMm7OTv3ueVMiBgWlJxAx0T3eTMqaZ3aeV000bKT1J5auJjOs/Pm2o4
BucgIO4GES0+soav3Nq9eWWoUrWdRv9P+sv11LjsH/nMUlW7CsptonbtQ/rlEred
KXJIEFu9UgG5kU6khxj8zlt4ATW+zDxYT99m+2tv6lqTlv5gP5bt9KQdjdKAUoCe
q7FTcQlThXImyA1R6DaGrj1YT+h+kq8t/ZSI4Ue/COF2/M5FyafJhXva+Z75Vo7Y
XHaRcOzrliORnZ7EARkp8WonMUlxNLSPoAF0Go/uzUCHeGqBc1D6HKzQTt+KnIyG
L6NjaOcsv5C2hY4ZCqw2FR5tm/EUsxMIBXd7WYuA4VP/vLES1+znlq00a4hElkTj
UTjsVXmiw00Xu/2EPOYQTq+qDB94sYq8WP7VT70EuhJsauLZxISOy4M5yo3XbAi/
oE5Xywon587MBSSoky0a/enC+0i9rATJBifxDzpv/4wUrh3/oNyzbEiz/7U2ml+P
XtYnGH9KhHAKf4eR/wMVl46SlQqf1f/obXhm0Nlw0wo0P9gMGCLMhkC6jJT52qGm
MvsoawYeZ2TN4nqfnkXUlIhaE962bY6x/i2dwdLDkxohqvYsIyqJ81lXdA/s0e7J
vZJppdo6R+AWdA33217AeuT91AIBY8OljpMCAwEAAaN7MHkwCQYDVR0TBAIwADAs
BglghkgBhvhCAQ0EHxYdT3BlblNTTCBHZW5lcmF0ZWQgQ2VydGlmaWNhdGUwHQYD
VR0OBBYEFOVW/cwANNcKhYcw3rrUjAbvcGC5MB8GA1UdIwQYMBaAFCQ4aHOoJsnm
W6UL6EwrUA+gBaOkMA0GCSqGSIb3DQEBCwUAA4ICAQB8vA5eDEggg2NDOKXvaSEW
ZzTQl1S76mLwPiXFs10Lor8XMTAZIDRmSt2FMzVkd74kp8bkRM4NHC/kudHgkrYc
GkGTIsM9O3CtL3NR6tJZsojJi7azioJq0QvtpKW9v1i8cm4plxHzsdx34y3P/NtM
+iP9crfzyI1rZC0ABjMN7Lt1hQI0KF71b+IcBuozVq0e4598UaeYcZQOku9Xt2S5
2NDejtZp+8DVMD8rkjI4mEYciSyLvAYvlYiQkJcDzynFeC7Fb4p+YRvOkpd7AFN1
H/vXrQudINY4TVsfWV7Y/nfr7SCnlfnjjBBXOJIRpsGECWmcI4ZA8q1MPf7r9Cc7
V83BpoPzKZkHWhxxZiKkp654tzvjfTea+HVsdUKpG5dDwNRrcNZA8pjOXIt5og11
VLUpBiFwanw49kLi6BQ/LHhvybjk6Vmm5tOquDML3nTQe3SoZRQdcpN8Z9KQNquU
AAlrUmmsIHQf9aJcA2dRH1zaa7rPgrLtv4PD3kWb34AJ0iSGYpy/NjAybCpbD8AP
TOGvEVEEMzaEWQpwvrIMlxTNqB+ndl2RX0VDb99QxU4o6eNwVeZwfuqtv7fLutTW
XvjjhyPw8XJiJr/+RoI6Xq7lgAFJkLOxIxKmmXUFisktXSdTJuXvKa6NX1xxZfvm
q4jtEj2jL49urQ7iH0Wn0Q==
-----END CERTIFICATE-----
