Certificate:
    Data:
        Version: 3 (0x2)
        Serial Number: 305419918 (0x1234568e)
        Signature Algorithm: sha256WithRSAEncryption
        Issuer: CN=SRK4_sha256_4096_65537_v3_ca
        Validity
            Not Before: May 22 09:56:46 2019 GMT
            Not After : Apr 28 09:56:46 2119 GMT
        Subject: CN=CSF4_1_sha256_4096_65537_v3_usr
        Subject Public Key Info:
            Public Key Algorithm: rsaEncryption
                RSA Public-Key: (4096 bit)
                Modulus:
                    00:c8:8a:58:8b:15:0a:c4:bb:91:e2:9d:42:37:36:
                    7e:5b:db:f3:ee:9d:d8:d5:83:7b:64:d6:0e:bb:e5:
                    54:fa:9f:71:43:80:57:56:26:65:ab:99:c9:03:b6:
                    da:a5:c1:b4:60:1a:41:78:2e:6f:2f:1d:78:ee:e2:
                    f1:42:cd:18:c2:32:54:2c:04:51:80:a7:be:bc:f1:
                    bd:66:e3:75:ac:33:fa:10:47:36:ea:9b:ab:7a:19:
                    3f:27:c7:cb:60:4d:dc:91:6e:44:85:70:55:3b:14:
                    49:5d:a1:e2:4a:4d:85:14:33:a3:fe:45:87:23:5d:
                    c1:c9:43:9a:0b:7e:1d:ba:ce:11:3c:77:c5:92:1a:
                    0f:0b:5c:37:3e:3a:33:0a:36:e4:9f:50:ef:2a:b6:
                    c9:78:40:5f:a4:dc:61:aa:0f:6b:8f:a1:43:b3:dd:
                    3f:a1:dd:0c:84:91:30:78:b9:89:c0:44:36:0c:46:
                    8d:99:5d:5d:3b:4d:29:38:1e:11:12:63:8d:ba:20:
                    53:66:f8:67:65:03:c7:23:a0:fe:c8:74:dd:26:16:
                    32:c8:fa:97:d0:43:9d:ff:89:d7:ef:7c:47:fa:58:
                    da:85:a5:92:a4:a2:23:77:60:4a:53:86:96:53:06:
                    12:7f:3b:23:d8:cc:3d:73:c8:ef:bb:03:20:a6:6b:
                    34:74:0d:f4:28:b3:14:59:3c:56:5b:58:9d:c2:f0:
                    27:8a:b4:8d:36:0f:f0:d2:bb:7a:2b:66:51:e2:2b:
                    4e:92:e4:77:c9:17:c2:a3:4f:54:fa:73:a3:31:a9:
                    36:76:5a:7d:a9:4f:4e:fc:f1:c3:14:79:54:3d:dd:
                    07:33:3a:01:b5:59:40:4c:a4:9d:c2:e0:b5:ad:c6:
                    76:a7:0f:f1:0e:ee:8c:5c:f8:bd:fa:65:e7:46:e0:
                    b7:ed:0f:fc:05:cc:86:b7:22:25:4e:1e:a1:0a:0c:
                    32:a8:a6:e7:42:92:e6:7e:41:7e:52:84:25:3b:de:
                    7e:ce:35:e5:92:26:1c:74:d8:51:2e:37:89:36:d5:
                    53:75:fa:a9:f7:f8:0c:2b:99:26:56:fa:97:97:a1:
                    da:ff:87:18:b4:28:da:1c:6e:7a:ba:c7:b1:5a:94:
                    f6:97:c6:29:b8:c9:31:89:bb:54:cb:f9:f7:45:d3:
                    ea:6e:c0:2e:af:e5:d6:d4:06:f5:bd:8c:9d:49:c4:
                    2a:49:ce:5d:a3:72:14:0a:d0:4f:bf:bb:07:9b:de:
                    aa:08:92:d6:3d:7d:b8:a0:c8:32:b9:a7:03:09:4c:
                    64:e6:82:45:20:00:bb:c8:c2:d4:04:5f:1f:e7:69:
                    b8:a4:1d:5e:91:bc:e8:33:98:a9:79:9f:74:22:1a:
                    3a:f3:43
                Exponent: 65537 (0x10001)
        X509v3 extensions:
            X509v3 Basic Constraints: 
                CA:FALSE
            Netscape Comment: 
                OpenSSL Generated Certificate
            X509v3 Subject Key Identifier: 
                9F:A9:28:1E:D9:14:B1:18:2B:FE:50:BD:44:77:49:54:03:1F:F0:1E
            X509v3 Authority Key Identifier: 
                keyid:1D:31:D5:9E:97:FE:81:69:48:81:1F:CE:10:6A:7B:A6:6D:C5:88:48

    Signature Algorithm: sha256WithRSAEncryption
         4c:9e:74:60:5a:75:fc:62:77:bf:7b:10:52:80:76:47:d4:7f:
         b9:2c:15:90:b9:5a:e5:7b:7e:ca:75:ff:26:83:eb:ff:a0:e4:
         53:e4:c0:3c:51:7e:bb:b7:d0:3c:e9:da:99:85:e6:ea:ba:3c:
         10:80:00:dc:11:5d:5a:90:58:aa:8b:01:5a:b7:90:ac:03:5d:
         c3:b3:5d:21:fb:09:8b:ea:4b:d2:ce:99:83:23:16:dc:9f:e2:
         d6:c3:f4:30:8c:53:b8:88:9c:c1:5f:cf:ed:36:af:ce:92:90:
         64:15:fd:55:69:97:6d:3c:52:fa:57:d3:fc:79:fb:d2:a6:2a:
         aa:de:82:6c:05:ff:b6:43:77:61:b8:5b:2a:7f:c2:cc:36:59:
         df:5b:01:01:88:b6:3f:5d:f7:15:57:fb:3d:29:28:27:7f:d0:
         5c:48:ef:f5:2f:89:9e:23:d8:5b:df:df:53:cb:a6:5c:e9:4d:
         c4:a5:9f:3e:06:53:b2:e4:eb:4a:b6:7b:f3:29:9b:79:5b:cc:
         7f:a0:c1:2f:f7:6e:f3:79:12:6d:65:ea:1b:5c:5f:5f:d0:4c:
         36:58:16:15:f3:de:cb:b4:a5:66:83:47:77:7e:e1:75:cd:17:
         d3:1f:38:12:4e:6a:b9:e6:d7:60:b3:45:75:1b:bf:79:d2:19:
         51:b6:ca:1d:d2:76:01:45:e3:6b:ec:a7:10:43:2c:0c:1f:7b:
         ee:52:ca:3e:1d:bb:1a:64:e0:64:6d:bc:59:e3:61:f6:91:4d:
         33:16:1e:fd:bb:14:8e:b6:c5:2d:24:61:23:36:4f:1e:51:83:
         47:95:5f:ca:b4:13:d3:2f:e5:fd:a5:05:cd:aa:a7:6d:bd:cb:
         ea:e1:b6:07:bb:84:af:59:1d:39:7a:48:6e:d7:d1:c7:92:b9:
         dd:f2:e5:08:6b:85:a7:eb:d1:fd:66:08:ce:39:ee:32:01:04:
         d2:4b:f8:8f:33:13:cc:ed:c5:fd:77:e0:12:63:3b:f5:0e:17:
         17:e5:ea:35:af:ba:18:22:3d:48:8e:70:61:36:cf:4e:82:c2:
         9e:39:2e:d4:ac:5a:6c:73:5a:56:1c:7e:25:b0:76:17:d0:db:
         43:4e:cb:0a:d8:c6:00:1b:d2:8e:8d:0f:6c:bc:59:43:4c:6f:
         db:05:22:c3:8f:22:f7:9b:2c:aa:ac:c3:3b:50:44:15:90:bc:
         48:2f:a0:50:1a:55:9e:42:12:c9:76:07:35:4c:c0:f6:74:0a:
         51:a8:69:bd:a4:67:d0:aa:b4:ac:87:ac:14:9d:cc:07:f2:0a:
         f3:bf:5e:90:0d:3e:49:77:90:ca:d6:f0:e2:0d:91:a6:0b:3e:
         65:90:5d:6d:5e:35:b1:64
-----BEGIN CERTIFICATE-----
MIIFTDCCAzSgAwIBAgIEEjRWjjANBgkqhkiG9w0BAQsFADAnMSUwIwYDVQQDDBxT
Uks0X3NoYTI1Nl80MDk2XzY1NTM3X3YzX2NhMCAXDTE5MDUyMjA5NTY0NloYDzIx
MTkwNDI4MDk1NjQ2WjAqMSgwJgYDVQQDDB9DU0Y0XzFfc2hhMjU2XzQwOTZfNjU1
MzdfdjNfdXNyMIICIjANBgkqhkiG9w0BAQEFAAOCAg8AMIICCgKCAgEAyIpYixUK
xLuR4p1CNzZ+W9vz7p3Y1YN7ZNYOu+VU+p9xQ4BXViZlq5nJA7bapcG0YBpBeC5v
Lx147uLxQs0YwjJULARRgKe+vPG9ZuN1rDP6EEc26purehk/J8fLYE3ckW5EhXBV
OxRJXaHiSk2FFDOj/kWHI13ByUOaC34dus4RPHfFkhoPC1w3PjozCjbkn1DvKrbJ
eEBfpNxhqg9rj6FDs90/od0MhJEweLmJwEQ2DEaNmV1dO00pOB4REmONuiBTZvhn
ZQPHI6D+yHTdJhYyyPqX0EOd/4nX73xH+ljahaWSpKIjd2BKU4aWUwYSfzsj2Mw9
c8jvuwMgpms0dA30KLMUWTxWW1idwvAnirSNNg/w0rt6K2ZR4itOkuR3yRfCo09U
+nOjMak2dlp9qU9O/PHDFHlUPd0HMzoBtVlATKSdwuC1rcZ2pw/xDu6MXPi9+mXn
RuC37Q/8BcyGtyIlTh6hCgwyqKbnQpLmfkF+UoQlO95+zjXlkiYcdNhRLjeJNtVT
dfqp9/gMK5kmVvqXl6Ha/4cYtCjaHG56usexWpT2l8YpuMkxibtUy/n3RdPqbsAu
r+XW1Ab1vYydScQqSc5do3IUCtBPv7sHm96qCJLWPX24oMgyuacDCUxk5oJFIAC7
yMLUBF8f52m4pB1ekbzoM5ipeZ90Iho680MCAwEAAaN7MHkwCQYDVR0TBAIwADAs
BglghkgBhvhCAQ0EHxYdT3BlblNTTCBHZW5lcmF0ZWQgQ2VydGlmaWNhdGUwHQYD
VR0OBBYEFJ+pKB7ZFLEYK/5QvUR3SVQDH/AeMB8GA1UdIwQYMBaAFB0x1Z6X/oFp
SIEfzhBqe6ZtxYhIMA0GCSqGSIb3DQEBCwUAA4ICAQBMnnRgWnX8Yne/exBSgHZH
1H+5LBWQuVrle37Kdf8mg+v/oORT5MA8UX67t9A86dqZhebqujwQgADcEV1akFiq
iwFat5CsA13Ds10h+wmL6kvSzpmDIxbcn+LWw/QwjFO4iJzBX8/tNq/OkpBkFf1V
aZdtPFL6V9P8efvSpiqq3oJsBf+2Q3dhuFsqf8LMNlnfWwEBiLY/XfcVV/s9KSgn
f9BcSO/1L4meI9hb399Ty6Zc6U3EpZ8+BlOy5OtKtnvzKZt5W8x/oMEv927zeRJt
ZeobXF9f0Ew2WBYV897LtKVmg0d3fuF1zRfTHzgSTmq55tdgs0V1G7950hlRtsod
0nYBReNr7KcQQywMH3vuUso+HbsaZOBkbbxZ42H2kU0zFh79uxSOtsUtJGEjNk8e
UYNHlV/KtBPTL+X9pQXNqqdtvcvq4bYHu4SvWR05ekhu19HHkrnd8uUIa4Wn69H9
ZgjOOe4yAQTSS/iPMxPM7cX9d+ASYzv1DhcX5eo1r7oYIj1IjnBhNs9OgsKeOS7U
rFpsc1pWHH4lsHYX0NtDTssK2MYAG9KOjQ9svFlDTG/bBSLDjyL3myyqrMM7UEQV
kLxIL6BQGlWeQhLJdgc1TMD2dApRqGm9pGfQqrSsh6wUncwH8grzv16QDT5Jd5DK
1vDiDZGmCz5lkF1tXjWxZA==
-----END CERTIFICATE-----
