Certificate:
    Data:
        Version: 3 (0x2)
        Serial Number: 305419910 (0x12345686)
        Signature Algorithm: sha256WithRSAEncryption
        Issuer: CN=SRK1_sha256_4096_65537_v3_ca
        Validity
            Not Before: May 22 09:56:42 2019 GMT
            Not After : Apr 28 09:56:42 2119 GMT
        Subject: CN=IMG1_1_sha256_4096_65537_v3_usr
        Subject Public Key Info:
            Public Key Algorithm: rsaEncryption
                RSA Public-Key: (4096 bit)
                Modulus:
                    00:d4:22:56:dd:14:60:ed:9a:26:af:39:27:2d:97:
                    e4:b3:01:9d:70:73:e0:dc:fc:f2:69:ae:9e:fa:8f:
                    d8:a7:36:e8:e5:6b:57:78:94:c7:2d:60:6b:d2:a4:
                    ce:be:ad:ca:0b:88:81:30:a1:2e:6a:18:63:e0:5a:
                    c4:c6:8d:ad:0f:fb:bf:b3:95:d5:10:ce:ef:b4:1b:
                    c7:a7:b6:3b:b7:0d:c4:a1:8a:9e:9f:72:d1:51:09:
                    94:b3:c8:a4:02:15:29:9f:93:af:5d:d2:59:43:88:
                    29:e2:3e:4e:ba:f4:fa:f5:44:fb:53:6a:87:dd:f7:
                    5a:8b:9b:c8:07:fd:b1:7b:3a:f2:78:6f:41:a6:fc:
                    51:d7:74:e4:16:15:d2:db:75:dc:f0:6c:42:ca:5e:
                    c8:f7:ba:e7:17:4b:98:c9:7f:8b:7a:b0:e2:c9:8c:
                    83:2f:c8:69:56:22:b9:9b:8f:00:84:dc:77:d5:b3:
                    d5:a0:61:84:52:16:ee:82:33:2c:ca:76:93:47:8f:
                    70:3f:04:8f:e5:42:b2:76:51:27:7e:a0:49:3c:a4:
                    7f:6a:59:ca:67:c3:6e:5a:88:d8:ef:35:32:df:1f:
                    b2:2c:bc:dd:d7:46:44:70:a3:c6:5f:3a:72:44:b6:
                    57:3f:0c:ab:4f:5e:c7:ec:d0:c2:c3:e4:70:eb:ff:
                    f5:4f:66:19:92:95:8b:cb:58:2f:86:4b:ca:e2:9e:
                    44:45:f7:45:f8:26:e4:e2:c7:0a:7f:45:d1:94:95:
                    0a:5f:0c:45:c8:f4:60:ba:77:17:43:ee:c8:9c:ba:
                    ec:b3:a8:0b:54:f3:8f:e7:02:3b:dd:90:46:ef:3f:
                    4f:26:9e:4a:c2:38:16:d7:94:59:44:21:9a:2a:bf:
                    d1:30:0f:af:ef:10:a4:6e:e2:ab:09:94:b4:31:8b:
                    a3:9e:20:2d:44:1b:d2:19:40:20:47:86:15:e5:13:
                    6c:27:6d:d4:ba:e7:65:22:f7:e0:c3:92:ac:62:ee:
                    71:f9:92:17:02:a6:5c:3c:1f:1f:90:f2:8d:41:de:
                    c8:c5:e7:22:aa:14:92:2e:2b:8e:84:e0:20:a3:39:
                    92:88:aa:1d:b2:71:78:a0:26:13:2c:26:78:5d:9a:
                    c6:fb:f7:ae:20:68:05:6e:de:6d:af:2a:c4:91:6a:
                    e2:82:03:fb:ef:26:a3:31:99:8f:fb:cc:7f:cc:67:
                    cb:7c:c2:9e:b3:0a:3e:67:09:aa:2a:da:c9:fa:b0:
                    4b:cc:31:5e:3b:01:ab:0a:f0:62:a0:8c:3c:aa:55:
                    bf:54:b5:fe:c7:99:41:4c:5e:c6:72:44:1f:d4:e6:
                    00:9a:00:ea:b6:3e:24:73:ac:25:47:9b:04:28:ab:
                    c8:c9:23
                Exponent: 65537 (0x10001)
        X509v3 extensions:
            X509v3 Basic Constraints: 
                CA:FALSE
            Netscape Comment: 
                OpenSSL Generated Certificate
            X509v3 Subject Key Identifier: 
                3C:6C:18:73:AD:AB:8D:B0:99:80:28:D3:01:D9:F9:FA:30:D2:B9:56
            X509v3 Authority Key Identifier: 
                keyid:00:C6:29:28:41:1D:F7:C7:53:97:B4:BC:BD:A4:93:5B:89:9F:3D:41

    Signature Algorithm: sha256WithRSAEncryption
         3f:19:d8:12:c8:d8:ad:e4:b0:87:0a:c7:fb:bf:35:0c:1e:37:
         a5:3c:e4:97:29:7f:60:70:ec:16:4f:d7:6a:ea:b9:43:4a:71:
         01:da:1d:4d:b2:84:31:a5:81:d0:a5:27:68:76:ba:c6:b5:6a:
         85:46:fb:b3:f3:78:6a:2f:48:b5:b6:89:e6:c6:e6:ff:91:42:
         2a:62:af:da:3a:2a:43:76:b4:78:c2:6c:bc:af:5b:2e:90:e3:
         04:b8:59:4c:85:1d:56:e8:15:d9:b5:8c:c7:ee:fa:21:72:7b:
         51:13:e1:b7:b7:f7:3c:6c:cb:22:0e:63:01:cb:6a:16:58:91:
         fd:d1:cf:7a:95:81:e5:a8:dc:f5:cb:79:05:70:f9:fa:8b:e5:
         37:d3:b1:db:c9:03:df:f8:0c:53:d8:ab:05:3a:ef:e1:53:e4:
         0e:76:b0:85:38:ea:da:5b:06:3d:79:45:36:4e:26:6d:bf:88:
         6e:81:64:6b:7b:e2:3d:51:a1:32:a7:e3:f0:fc:ac:a4:ac:4d:
         cf:03:76:7c:83:d0:14:57:0d:65:0a:62:47:cb:f5:f4:2c:d6:
         d6:6f:1f:17:23:d8:5b:1f:58:bc:0e:c1:e1:0a:f2:57:6c:7c:
         3f:66:af:ae:30:6e:84:dc:57:af:48:f4:a9:4a:e7:8a:fa:33:
         8c:16:6c:1d:95:27:06:f9:a9:8c:e4:db:db:5b:0e:9e:d4:06:
         8d:17:fd:ba:b9:05:2b:f1:90:dd:de:af:6a:15:c5:6b:4f:9f:
         e8:da:19:f3:c4:2f:66:72:12:a6:81:92:95:6b:c1:9a:dc:0d:
         ee:95:26:73:93:4c:55:fd:34:a1:39:a5:d3:56:16:ec:9c:76:
         9e:dc:a6:e7:33:07:92:d5:ca:12:59:7a:bb:22:78:ce:7b:bf:
         53:3c:f7:44:0e:a7:bf:c2:f5:52:fc:29:71:f0:97:d5:14:07:
         7a:e1:1a:b6:46:8b:2f:cf:b5:3f:b7:a6:c0:ea:81:2d:6a:9c:
         da:19:b6:17:b0:60:05:23:e5:dd:60:00:87:05:53:a4:70:2f:
         ae:dd:63:5b:28:9f:d3:83:ac:4a:b4:a4:1f:49:5d:6e:69:a1:
         dd:6a:d5:42:f6:9b:da:f8:85:bd:92:4f:e5:0a:aa:5c:02:ab:
         ff:88:b1:ba:cb:27:67:a5:42:a9:52:04:3b:7d:d0:47:fc:67:
         04:13:25:5c:35:3b:14:f3:62:04:18:03:99:45:24:e7:d1:1a:
         ee:20:69:c0:59:e6:98:ac:50:e2:b6:0b:b0:fd:3c:d0:0c:71:
         90:59:7d:35:37:59:89:23:cf:63:b2:2f:98:fb:ff:7b:49:ac:
         5b:3f:cf:76:8a:70:0e:3c
-----BEGIN CERTIFICATE-----
MIIFTDCCAzSgAwIBAgIEEjRWhjANBgkqhkiG9w0BAQsFADAnMSUwIwYDVQQDDBxT
UksxX3NoYTI1Nl80MDk2XzY1NTM3X3YzX2NhMCAXDTE5MDUyMjA5NTY0MloYDzIx
MTkwNDI4MDk1NjQyWjAqMSgwJgYDVQQDDB9JTUcxXzFfc2hhMjU2XzQwOTZfNjU1
MzdfdjNfdXNyMIICIjANBgkqhkiG9w0BAQEFAAOCAg8AMIICCgKCAgEA1CJW3RRg
7ZomrzknLZfkswGdcHPg3Pzyaa6e+o/Ypzbo5WtXeJTHLWBr0qTOvq3KC4iBMKEu
ahhj4FrExo2tD/u/s5XVEM7vtBvHp7Y7tw3EoYqen3LRUQmUs8ikAhUpn5OvXdJZ
Q4gp4j5OuvT69UT7U2qH3fdai5vIB/2xezryeG9BpvxR13TkFhXS23Xc8GxCyl7I
97rnF0uYyX+LerDiyYyDL8hpViK5m48AhNx31bPVoGGEUhbugjMsynaTR49wPwSP
5UKydlEnfqBJPKR/alnKZ8NuWojY7zUy3x+yLLzd10ZEcKPGXzpyRLZXPwyrT17H
7NDCw+Rw6//1T2YZkpWLy1gvhkvK4p5ERfdF+Cbk4scKf0XRlJUKXwxFyPRguncX
Q+7InLrss6gLVPOP5wI73ZBG7z9PJp5KwjgW15RZRCGaKr/RMA+v7xCkbuKrCZS0
MYujniAtRBvSGUAgR4YV5RNsJ23UuudlIvfgw5KsYu5x+ZIXAqZcPB8fkPKNQd7I
xeciqhSSLiuOhOAgozmSiKodsnF4oCYTLCZ4XZrG+/euIGgFbt5tryrEkWriggP7
7yajMZmP+8x/zGfLfMKeswo+ZwmqKtrJ+rBLzDFeOwGrCvBioIw8qlW/VLX+x5lB
TF7GckQf1OYAmgDqtj4kc6wlR5sEKKvIySMCAwEAAaN7MHkwCQYDVR0TBAIwADAs
BglghkgBhvhCAQ0EHxYdT3BlblNTTCBHZW5lcmF0ZWQgQ2VydGlmaWNhdGUwHQYD
VR0OBBYEFDxsGHOtq42wmYAo0wHZ+fow0rlWMB8GA1UdIwQYMBaAFADGKShBHffH
U5e0vL2kk1uJnz1BMA0GCSqGSIb3DQEBCwUAA4ICAQA/GdgSyNit5LCHCsf7vzUM
HjelPOSXKX9gcOwWT9dq6rlDSnEB2h1NsoQxpYHQpSdodrrGtWqFRvuz83hqL0i1
tonmxub/kUIqYq/aOipDdrR4wmy8r1sukOMEuFlMhR1W6BXZtYzH7vohcntRE+G3
t/c8bMsiDmMBy2oWWJH90c96lYHlqNz1y3kFcPn6i+U307HbyQPf+AxT2KsFOu/h
U+QOdrCFOOraWwY9eUU2TiZtv4hugWRre+I9UaEyp+Pw/KykrE3PA3Z8g9AUVw1l
CmJHy/X0LNbWbx8XI9hbH1i8DsHhCvJXbHw/Zq+uMG6E3FevSPSpSueK+jOMFmwd
lScG+amM5NvbWw6e1AaNF/26uQUr8ZDd3q9qFcVrT5/o2hnzxC9mchKmgZKVa8Ga
3A3ulSZzk0xV/TShOaXTVhbsnHae3KbnMweS1coSWXq7InjOe79TPPdEDqe/wvVS
/Clx8JfVFAd64Rq2Rosvz7U/t6bA6oEtapzaGbYXsGAFI+XdYACHBVOkcC+u3WNb
KJ/Tg6xKtKQfSV1uaaHdatVC9pva+IW9kk/lCqpcAqv/iLG6yydnpUKpUgQ7fdBH
/GcEEyVcNTsU82IEGAOZRSTn0RruIGnAWeaYrFDitguw/TzQDHGQWX01N1mJI89j
si+Y+/97SaxbP892inAOPA==
-----END CERTIFICATE-----
