Certificate:
    Data:
        Version: 3 (0x2)
        Serial Number: 305419919 (0x1234568f)
        Signature Algorithm: sha256WithRSAEncryption
        Issuer: CN=SRK4_sha256_4096_65537_v3_ca
        Validity
            Not Before: May 22 09:56:46 2019 GMT
            Not After : Apr 28 09:56:46 2119 GMT
        Subject: CN=IMG4_1_sha256_4096_65537_v3_usr
        Subject Public Key Info:
            Public Key Algorithm: rsaEncryption
                RSA Public-Key: (4096 bit)
                Modulus:
                    00:cc:36:8b:e8:62:05:dc:62:dc:ee:51:13:00:ff:
                    ee:e4:72:76:17:00:1c:97:cc:d3:28:2a:a6:e9:5e:
                    d2:77:5e:49:7d:da:02:6e:ea:ea:44:24:7a:95:80:
                    98:6b:fe:15:7a:05:f0:3f:02:c1:8a:80:47:e9:04:
                    c5:c0:88:93:0a:5b:71:d4:a7:0a:5e:85:05:1d:2c:
                    39:7e:06:b8:58:eb:dd:0a:e7:01:6a:9d:d1:d7:0c:
                    01:67:b4:9a:f2:3f:c1:a8:bc:2d:92:87:c1:00:4d:
                    e7:70:ae:79:07:81:6b:87:9d:fa:2a:e2:1d:c6:93:
                    78:fb:37:12:97:f0:89:7c:33:04:51:ee:46:18:fa:
                    f5:4d:70:d9:e0:c4:64:23:3f:23:03:c7:8b:fe:dc:
                    b5:0d:f9:d9:1b:a2:78:58:aa:4a:93:83:36:1b:da:
                    27:e2:73:d1:45:ff:9c:99:a3:c0:de:f2:3c:37:4d:
                    90:69:80:60:27:ff:f8:47:f1:b3:d0:60:a3:27:26:
                    b1:ce:da:0a:e8:13:cf:cd:5f:b3:7c:09:69:13:3c:
                    fc:f4:eb:d1:38:02:ad:b3:56:b0:cd:ef:03:b7:10:
                    3b:ea:f9:10:63:d0:73:a5:21:cc:5d:d6:78:3c:4e:
                    54:4d:13:dc:9b:0f:95:c0:8d:3c:02:af:f4:5b:2b:
                    11:15:36:6c:d6:0e:ae:a7:19:6e:97:20:4f:bd:21:
                    42:36:3b:b8:c4:18:10:7a:a7:f4:52:3f:db:fd:57:
                    d0:b9:ea:dd:af:0d:7c:9a:04:f0:75:b5:cf:5d:da:
                    25:da:76:4a:aa:9f:3e:80:99:99:36:4c:a2:81:85:
                    85:3b:2c:4e:6f:b1:2a:02:9f:c9:96:d6:93:32:94:
                    a6:ea:b3:ea:03:aa:cc:b4:31:fc:fa:9a:aa:f9:5e:
                    d1:19:51:22:55:57:79:58:74:ae:90:da:a6:bf:fc:
                    ca:9b:cd:a4:d4:10:9f:e3:07:05:14:2b:1d:0b:64:
                    ac:35:0e:93:5b:b3:23:99:94:58:95:16:b4:49:14:
                    f3:85:52:da:c1:ed:2a:98:61:97:fd:9f:40:7d:f4:
                    59:b8:28:ca:b3:7e:6b:65:e4:4e:b3:27:cc:1d:e2:
                    4d:88:ca:90:e5:58:c8:cd:3d:6d:63:b2:0e:b9:05:
                    26:2d:e9:24:56:54:c0:37:6c:e1:3a:53:24:fa:2b:
                    c7:8c:7c:53:31:d2:70:f7:c0:61:2a:d2:02:81:31:
                    6f:60:a0:b6:7c:0f:99:40:13:8d:90:e6:22:d0:fc:
                    03:a6:85:19:19:97:34:fd:44:0c:bd:98:d5:7f:44:
                    3e:a4:ea:5f:e5:93:69:2a:4d:26:33:fa:1d:35:63:
                    31:de:47
                Exponent: 65537 (0x10001)
        X509v3 extensions:
            X509v3 Basic Constraints: 
                CA:FALSE
            Netscape Comment: 
                OpenSSL Generated Certificate
            X509v3 Subject Key Identifier: 
                A6:0C:30:F2:EC:2E:D8:92:EF:81:4E:B0:90:E9:FB:6C:29:D3:43:F2
            X509v3 Authority Key Identifier: 
                keyid:1D:31:D5:9E:97:FE:81:69:48:81:1F:CE:10:6A:7B:A6:6D:C5:88:48

    Signature Algorithm: sha256WithRSAEncryption
         01:1d:4f:54:78:23:8d:db:b0:f8:58:a2:92:c8:5c:9b:b6:2b:
         66:c4:69:49:93:c8:e0:71:81:e3:57:f6:3a:66:ce:ea:7c:6a:
         c6:fe:09:0e:6c:a3:ef:5f:15:00:3c:21:c5:62:14:01:64:80:
         3d:24:1a:07:d8:da:9a:1a:8c:0d:0f:61:e8:23:10:db:e4:98:
         ec:48:d6:61:a9:c5:50:8c:f9:77:94:31:1e:77:e6:b3:e2:d5:
         c9:e1:6b:e0:0b:6a:18:4b:d4:8a:4b:87:0b:93:d8:5e:a9:2a:
         69:a7:2f:56:cf:9a:75:de:03:8c:60:ad:f5:b8:19:7a:15:5f:
         94:a7:91:cf:81:48:bc:8f:67:7d:f4:7c:91:c6:84:2a:dd:81:
         e7:dd:8b:0a:d9:42:34:7a:8d:8a:70:b0:9d:3e:80:3d:ca:bc:
         a5:e1:3d:6e:f7:a4:e5:60:9d:63:2c:d5:b7:7e:67:60:0b:94:
         16:96:2d:ba:4d:a8:cc:7f:91:28:37:31:0e:5b:3b:7a:e6:11:
         19:59:4b:53:62:44:d7:a3:1c:a2:e1:3f:bc:b0:48:ee:e8:76:
         6e:71:49:a3:9e:d1:03:26:e0:05:b3:03:39:d2:51:d3:b4:cc:
         ef:88:58:13:fb:b1:e5:55:66:89:be:2b:c6:0f:34:6d:31:7c:
         c4:5b:75:62:61:11:24:05:f9:7e:93:59:89:05:1f:5c:63:6d:
         3f:37:9f:99:d3:a9:aa:01:0d:3c:ae:75:9a:2d:4c:e1:ae:8e:
         82:f0:76:bd:31:f7:20:17:33:0a:87:9d:a4:41:59:23:40:db:
         99:3b:ae:6f:b9:08:48:f4:b7:2d:e8:0d:37:ba:ed:4e:8d:cc:
         0d:c4:f1:fe:c6:7f:11:30:63:1e:c5:d1:19:39:a5:cb:07:ff:
         bf:07:bc:4f:82:b1:00:5e:08:b8:ba:81:a2:88:53:f7:ef:23:
         7f:8e:2b:31:0e:4c:f2:5e:d8:e0:4a:b1:81:82:1c:0e:cd:93:
         2d:cb:16:22:7c:4f:80:fe:d4:ce:c3:62:4c:cc:50:83:04:e7:
         17:6f:d3:71:05:72:b5:ca:94:eb:0b:ad:77:ce:d7:2d:a0:58:
         db:e4:5e:4a:71:91:1e:06:4b:2e:db:2c:7e:1a:5d:69:b3:f0:
         1f:de:f2:2d:a0:67:80:ab:52:6d:5f:9c:fa:38:0e:3f:a8:51:
         38:50:63:de:a8:78:e5:71:03:c2:97:40:29:cd:92:d4:9a:31:
         ac:55:91:91:e9:20:57:c8:3a:19:c4:5b:1f:06:12:2c:7b:b6:
         9a:0c:13:75:b7:15:d3:a3:e6:d8:fb:85:f8:50:a3:e0:92:a0:
         f6:32:a0:95:7a:e5:6e:3c
-----BEGIN CERTIFICATE-----
MIIFTDCCAzSgAwIBAgIEEjRWjzANBgkqhkiG9w0BAQsFADAnMSUwIwYDVQQDDBxT
Uks0X3NoYTI1Nl80MDk2XzY1NTM3X3YzX2NhMCAXDTE5MDUyMjA5NTY0NloYDzIx
MTkwNDI4MDk1NjQ2WjAqMSgwJgYDVQQDDB9JTUc0XzFfc2hhMjU2XzQwOTZfNjU1
MzdfdjNfdXNyMIICIjANBgkqhkiG9w0BAQEFAAOCAg8AMIICCgKCAgEAzDaL6GIF
3GLc7lETAP/u5HJ2FwAcl8zTKCqm6V7Sd15JfdoCburqRCR6lYCYa/4VegXwPwLB
ioBH6QTFwIiTCltx1KcKXoUFHSw5fga4WOvdCucBap3R1wwBZ7Sa8j/BqLwtkofB
AE3ncK55B4Frh536KuIdxpN4+zcSl/CJfDMEUe5GGPr1TXDZ4MRkIz8jA8eL/ty1
DfnZG6J4WKpKk4M2G9on4nPRRf+cmaPA3vI8N02QaYBgJ//4R/Gz0GCjJyaxztoK
6BPPzV+zfAlpEzz89OvROAKts1awze8DtxA76vkQY9BzpSHMXdZ4PE5UTRPcmw+V
wI08Aq/0WysRFTZs1g6upxlulyBPvSFCNju4xBgQeqf0Uj/b/VfQuerdrw18mgTw
dbXPXdol2nZKqp8+gJmZNkyigYWFOyxOb7EqAp/JltaTMpSm6rPqA6rMtDH8+pqq
+V7RGVEiVVd5WHSukNqmv/zKm82k1BCf4wcFFCsdC2SsNQ6TW7MjmZRYlRa0SRTz
hVLawe0qmGGX/Z9AffRZuCjKs35rZeROsyfMHeJNiMqQ5VjIzT1tY7IOuQUmLekk
VlTAN2zhOlMk+ivHjHxTMdJw98BhKtICgTFvYKC2fA+ZQBONkOYi0PwDpoUZGZc0
/UQMvZjVf0Q+pOpf5ZNpKk0mM/odNWMx3kcCAwEAAaN7MHkwCQYDVR0TBAIwADAs
BglghkgBhvhCAQ0EHxYdT3BlblNTTCBHZW5lcmF0ZWQgQ2VydGlmaWNhdGUwHQYD
VR0OBBYEFKYMMPLsLtiS74FOsJDp+2wp00PyMB8GA1UdIwQYMBaAFB0x1Z6X/oFp
SIEfzhBqe6ZtxYhIMA0GCSqGSIb3DQEBCwUAA4ICAQABHU9UeCON27D4WKKSyFyb
titmxGlJk8jgcYHjV/Y6Zs7qfGrG/gkObKPvXxUAPCHFYhQBZIA9JBoH2NqaGowN
D2HoIxDb5JjsSNZhqcVQjPl3lDEed+az4tXJ4WvgC2oYS9SKS4cLk9heqSpppy9W
z5p13gOMYK31uBl6FV+Up5HPgUi8j2d99HyRxoQq3YHn3YsK2UI0eo2KcLCdPoA9
yryl4T1u96TlYJ1jLNW3fmdgC5QWli26TajMf5EoNzEOWzt65hEZWUtTYkTXoxyi
4T+8sEju6HZucUmjntEDJuAFswM50lHTtMzviFgT+7HlVWaJvivGDzRtMXzEW3Vi
YREkBfl+k1mJBR9cY20/N5+Z06mqAQ08rnWaLUzhro6C8Ha9MfcgFzMKh52kQVkj
QNuZO65vuQhI9Lct6A03uu1OjcwNxPH+xn8RMGMexdEZOaXLB/+/B7xPgrEAXgi4
uoGiiFP37yN/jisxDkzyXtjgSrGBghwOzZMtyxYifE+A/tTOw2JMzFCDBOcXb9Nx
BXK1ypTrC613ztctoFjb5F5KcZEeBksu2yx+Gl1ps/Af3vItoGeAq1JtX5z6OA4/
qFE4UGPeqHjlcQPCl0ApzZLUmjGsVZGR6SBXyDoZxFsfBhIse7aaDBN1txXTo+bY
+4X4UKPgkqD2MqCVeuVuPA==
-----END CERTIFICATE-----
