Certificate:
    Data:
        Version: 3 (0x2)
        Serial Number: 305419908 (0x12345684)
        Signature Algorithm: sha256WithRSAEncryption
        Issuer: CN=CA1_sha256_4096_65537_v3_ca
        Validity
            Not Before: May 22 09:56:40 2019 GMT
            Not After : Apr 28 09:56:40 2119 GMT
        Subject: CN=SRK1_sha256_4096_65537_v3_ca
        Subject Public Key Info:
            Public Key Algorithm: rsaEncryption
                RSA Public-Key: (4096 bit)
                Modulus:
                    00:cf:53:e0:6d:88:60:08:b9:a4:b2:66:34:c2:7a:
                    25:76:41:27:e1:c8:d6:4a:5f:fc:5e:83:f5:e5:0f:
                    8d:78:4f:97:9a:9f:f6:19:54:96:cd:04:b3:18:6a:
                    58:be:56:3c:53:b4:6f:8d:42:be:01:27:1f:ba:48:
                    68:59:2f:a9:29:75:ed:39:71:a9:ee:4f:9a:1c:e7:
                    c2:44:24:cd:47:03:bb:80:60:18:17:19:74:41:f7:
                    ec:fb:30:85:98:c0:3c:e8:eb:bd:ab:22:a2:55:4c:
                    96:b5:46:88:db:7e:f7:c8:c9:bd:bf:58:62:50:35:
                    82:f3:91:b3:59:50:3d:f1:2f:45:ec:be:33:ff:dd:
                    51:64:a0:04:1b:92:73:fa:87:9f:a1:26:d0:30:5f:
                    b1:90:ba:53:21:2b:f3:cc:97:c5:7b:ff:39:2f:2a:
                    56:b4:cd:20:a6:72:bb:55:e9:cd:9c:65:77:eb:cf:
                    0f:07:c7:e0:4d:4e:b7:50:b1:e8:7b:5f:72:a1:46:
                    48:93:bf:7b:c2:00:30:6e:12:ae:84:2f:2c:9f:c1:
                    73:cf:22:76:7d:8d:ec:88:53:f1:70:59:7e:38:b0:
                    23:b6:57:83:e6:a5:9e:f5:1d:7f:1d:f1:6c:b2:e7:
                    23:e3:1c:a1:3c:0d:c0:c2:38:28:92:81:f5:1a:91:
                    08:9b:73:6e:a9:af:95:94:34:59:f1:d4:ae:10:b8:
                    8d:af:d0:3f:ba:7f:26:b8:93:ea:c2:7c:82:24:af:
                    dc:7b:af:e0:0a:49:36:3b:f4:8b:2a:e9:19:00:8e:
                    23:3b:66:c8:e4:05:7d:28:83:0b:21:c5:20:56:3d:
                    7c:bf:a3:f5:b5:f9:20:de:65:2d:7a:57:f7:81:22:
                    5c:6e:a0:6a:4c:54:45:2b:e7:45:03:a7:ff:db:47:
                    4e:4c:15:f4:68:6b:d0:dd:38:62:7e:8c:0b:30:06:
                    0e:bf:9c:d9:b4:28:41:25:b2:7f:da:bf:68:72:02:
                    d6:7b:ab:b5:85:2d:f9:f2:0c:d3:9d:dc:63:59:50:
                    56:c9:e7:06:1d:a7:cd:12:c2:35:9c:17:ca:55:ea:
                    3b:d0:54:ab:bd:d1:76:73:84:16:40:35:77:c8:1b:
                    96:3b:10:40:92:63:b6:06:1a:1f:b4:da:c8:6b:4b:
                    87:29:50:77:17:e3:52:34:58:d2:9d:e7:96:ae:48:
                    57:18:cc:81:00:3c:74:35:5c:3c:12:6f:71:a7:c8:
                    8b:83:a9:28:04:97:a1:d7:e8:0d:ad:45:af:3a:a1:
                    5d:85:89:8b:b4:ef:5a:f2:fd:e6:44:f7:11:8a:8d:
                    85:f9:6e:79:13:e1:1d:79:9c:33:6f:4e:04:a0:38:
                    93:bb:b1
                Exponent: 65537 (0x10001)
        X509v3 extensions:
            X509v3 Subject Key Identifier: 
                00:C6:29:28:41:1D:F7:C7:53:97:B4:BC:BD:A4:93:5B:89:9F:3D:41
            X509v3 Authority Key Identifier: 
                keyid:4C:BA:9D:9E:56:78:11:B2:66:EA:EA:5D:FA:8A:28:6F:B9:EC:6D:73
                DirName:/CN=CA1_sha256_4096_65537_v3_ca
                serial:7B:1B:2F:2F:C3:AB:50:73:23:EE:A7:D9:45:41:71:B6:EB:BA:5D:A8

            X509v3 Basic Constraints: critical
                CA:TRUE
            X509v3 Key Usage: 
                Certificate Sign
    Signature Algorithm: sha256WithRSAEncryption
         67:c4:7c:86:40:b6:ad:8f:e8:ff:a6:64:1e:fa:c6:62:bf:eb:
         8f:cb:1a:e0:a9:3a:3c:b0:62:ba:9f:be:b8:cb:55:fb:a1:00:
         1f:0e:b5:18:9d:16:68:ef:ae:48:38:4f:64:9a:54:6b:af:c1:
         00:5f:d3:9d:91:01:eb:4a:2f:d3:ed:b4:2f:8f:17:38:c3:36:
         a9:f0:9f:10:61:50:08:db:b9:8a:72:98:f9:e4:54:c7:e2:e5:
         00:8a:bc:35:1f:c5:41:d4:8d:75:b0:1f:67:94:26:26:67:1d:
         54:50:4b:b9:61:41:b0:43:9b:69:6b:0a:7c:ee:7c:7e:79:5b:
         5a:74:79:00:a4:2a:25:35:13:50:2a:e6:17:fb:92:34:47:cd:
         9f:5a:8e:a1:d1:17:cf:0f:ee:d7:9d:a9:6e:0a:3d:43:54:91:
         b2:67:cb:93:a6:5d:6d:7f:90:cd:c5:b4:8a:93:96:6a:03:ce:
         61:4b:59:cf:0d:3c:44:6b:3f:62:3a:d4:6e:84:7d:e0:42:fc:
         bb:48:9b:46:3e:49:ba:f6:ac:37:2c:c4:35:6f:9e:7e:fe:61:
         89:b9:36:70:58:a8:a5:d2:26:97:1b:cd:e0:3b:ff:47:ba:ec:
         df:df:0a:2f:92:fd:4b:26:43:a6:17:79:83:1a:2d:28:61:18:
         87:2f:47:a4:4c:a9:64:0b:de:9b:3a:a8:a1:e1:e5:d6:87:b9:
         02:70:21:2d:0a:6a:8e:8d:92:31:96:17:6f:d2:f7:a4:97:40:
         61:c8:49:8e:6b:40:31:2a:c5:ed:cb:01:c8:9e:db:1e:fd:26:
         59:66:b5:3e:a5:b5:83:e0:29:5c:8c:56:5a:7d:d4:f0:d9:4d:
         11:b1:23:34:73:18:5c:27:d5:ac:60:af:6f:ff:7c:6f:90:b0:
         c0:64:c4:6c:1f:b2:42:e6:b3:08:e1:c9:77:6f:a9:71:da:23:
         2e:82:e3:6c:2d:42:1d:4c:cb:f2:d1:8c:a4:b6:58:cf:8c:6b:
         db:86:77:c7:94:10:01:db:bd:14:1e:c0:f8:1f:45:66:23:62:
         ef:e1:a6:fd:81:87:a3:8c:2a:bd:48:ce:60:54:da:da:91:42:
         43:ef:db:b7:e1:11:da:bf:34:a8:48:fb:06:94:d1:e4:9b:de:
         53:08:d1:73:88:8a:ed:cb:d6:b3:ce:03:ca:a4:13:8f:0e:25:
         1d:af:c7:d6:41:71:79:7f:5b:f0:cd:7a:3f:78:0e:f1:4e:7a:
         85:b9:7e:5b:3d:ce:b9:0e:79:0c:c4:89:8d:5b:76:83:eb:22:
         04:62:8d:55:44:7e:b7:9f:c6:51:33:61:df:be:40:15:a3:e4:
         0a:03:3f:b1:f4:b8:fc:00
-----BEGIN CERTIFICATE-----
MIIFcTCCA1mgAwIBAgIEEjRWhDANBgkqhkiG9w0BAQsFADAmMSQwIgYDVQQDFBtD
QTFfc2hhMjU2XzQwOTZfNjU1MzdfdjNfY2EwIBcNMTkwNTIyMDk1NjQwWhgPMjEx
OTA0MjgwOTU2NDBaMCcxJTAjBgNVBAMMHFNSSzFfc2hhMjU2XzQwOTZfNjU1Mzdf
djNfY2EwggIiMA0GCSqGSIb3DQEBAQUAA4ICDwAwggIKAoICAQDPU+BtiGAIuaSy
ZjTCeiV2QSfhyNZKX/xeg/XlD414T5ean/YZVJbNBLMYali+VjxTtG+NQr4BJx+6
SGhZL6kpde05canuT5oc58JEJM1HA7uAYBgXGXRB9+z7MIWYwDzo672rIqJVTJa1
RojbfvfIyb2/WGJQNYLzkbNZUD3xL0XsvjP/3VFkoAQbknP6h5+hJtAwX7GQulMh
K/PMl8V7/zkvKla0zSCmcrtV6c2cZXfrzw8Hx+BNTrdQseh7X3KhRkiTv3vCADBu
Eq6ELyyfwXPPInZ9jeyIU/FwWX44sCO2V4PmpZ71HX8d8Wyy5yPjHKE8DcDCOCiS
gfUakQibc26pr5WUNFnx1K4QuI2v0D+6fya4k+rCfIIkr9x7r+AKSTY79Isq6RkA
jiM7ZsjkBX0ogwshxSBWPXy/o/W1+SDeZS16V/eBIlxuoGpMVEUr50UDp//bR05M
FfRoa9DdOGJ+jAswBg6/nNm0KEElsn/av2hyAtZ7q7WFLfnyDNOd3GNZUFbJ5wYd
p80SwjWcF8pV6jvQVKu90XZzhBZANXfIG5Y7EECSY7YGGh+02shrS4cpUHcX41I0
WNKd55auSFcYzIEAPHQ1XDwSb3GnyIuDqSgEl6HX6A2tRa86oV2FiYu071ry/eZE
9xGKjYX5bnkT4R15nDNvTgSgOJO7sQIDAQABo4GjMIGgMB0GA1UdDgQWBBQAxiko
QR33x1OXtLy9pJNbiZ89QTBhBgNVHSMEWjBYgBRMup2eVngRsmbq6l36iihvuext
c6EqpCgwJjEkMCIGA1UEAxQbQ0ExX3NoYTI1Nl80MDk2XzY1NTM3X3YzX2NhghR7
Gy8vw6tQcyPup9lFQXG267pdqDAPBgNVHRMBAf8EBTADAQH/MAsGA1UdDwQEAwIC
BDANBgkqhkiG9w0BAQsFAAOCAgEAZ8R8hkC2rY/o/6ZkHvrGYr/rj8sa4Kk6PLBi
up++uMtV+6EAHw61GJ0WaO+uSDhPZJpUa6/BAF/TnZEB60ov0+20L48XOMM2qfCf
EGFQCNu5inKY+eRUx+LlAIq8NR/FQdSNdbAfZ5QmJmcdVFBLuWFBsEObaWsKfO58
fnlbWnR5AKQqJTUTUCrmF/uSNEfNn1qOodEXzw/u152pbgo9Q1SRsmfLk6ZdbX+Q
zcW0ipOWagPOYUtZzw08RGs/YjrUboR94EL8u0ibRj5JuvasNyzENW+efv5hibk2
cFiopdImlxvN4Dv/R7rs398KL5L9SyZDphd5gxotKGEYhy9HpEypZAvemzqooeHl
1oe5AnAhLQpqjo2SMZYXb9L3pJdAYchJjmtAMSrF7csByJ7bHv0mWWa1PqW1g+Ap
XIxWWn3U8NlNEbEjNHMYXCfVrGCvb/98b5CwwGTEbB+yQuazCOHJd2+pcdojLoLj
bC1CHUzL8tGMpLZYz4xr24Z3x5QQAdu9FB7A+B9FZiNi7+Gm/YGHo4wqvUjOYFTa
2pFCQ+/bt+ER2r80qEj7BpTR5JveUwjRc4iK7cvWs84DyqQTjw4lHa/H1kFxeX9b
8M16P3gO8U56hbl+Wz3OuQ55DMSJjVt2g+siBGKNVUR+t5/GUTNh375AFaPkCgM/
sfS4/AA=
-----END CERTIFICATE-----
