Certificate:
    Data:
        Version: 3 (0x2)
        Serial Number: 305419914 (0x1234568a)
        Signature Algorithm: sha256WithRSAEncryption
        Issuer: CN=CA1_sha256_4096_65537_v3_ca
        Validity
            Not Before: May 22 09:56:44 2019 GMT
            Not After : Apr 28 09:56:44 2119 GMT
        Subject: CN=SRK3_sha256_4096_65537_v3_ca
        Subject Public Key Info:
            Public Key Algorithm: rsaEncryption
                RSA Public-Key: (4096 bit)
                Modulus:
                    00:c4:40:ec:98:c6:a0:10:ca:7e:69:8f:a6:c9:f8:
                    0c:c2:03:22:b5:a4:09:25:88:c0:d8:c0:fa:73:7d:
                    50:1e:f5:07:1f:ad:d9:c9:1b:15:a1:35:82:40:f2:
                    b5:30:37:a1:bd:1a:eb:c8:65:c7:a4:32:9d:78:dc:
                    2a:43:37:52:f5:2d:dd:ca:9b:0f:3c:f6:17:7c:77:
                    ae:7d:e7:b2:de:4a:f2:84:29:b1:3f:21:57:76:cb:
                    26:15:d2:ea:cc:63:5b:22:a2:07:5d:99:f4:45:4c:
                    e8:8c:b3:d8:cb:b0:c9:60:ad:ef:7a:16:12:4c:0d:
                    64:a2:ea:95:a9:c5:c2:44:83:0b:a3:5d:3e:30:6f:
                    99:fb:74:e4:5c:dc:da:27:10:64:7c:9a:a5:2c:cb:
                    4c:15:dd:de:3b:a0:6c:8c:0e:a8:0e:25:3b:e9:3a:
                    66:11:cf:60:27:56:cc:f1:20:21:62:0a:c8:eb:10:
                    5b:3e:66:43:4e:18:7d:28:cb:60:3f:98:bd:03:0b:
                    3a:0d:f4:0f:ac:73:b7:54:35:04:19:e8:c5:13:a7:
                    ab:8b:bd:f7:19:31:2e:aa:70:07:e0:e9:77:dc:fe:
                    51:18:a6:1e:66:6b:3d:b0:43:49:44:e5:3a:d0:01:
                    72:32:7e:cf:73:7f:aa:8e:8d:85:d8:2e:43:9a:8b:
                    0b:e3:61:25:d8:43:dc:89:dd:3d:59:f2:96:bd:d8:
                    9d:2f:4d:5d:db:19:de:4a:5a:3e:6a:be:dd:4f:58:
                    df:bd:98:b9:9f:14:50:a4:4b:ff:61:ff:29:ae:c6:
                    b9:07:31:69:c2:3f:96:b1:c0:a1:6f:87:96:f4:61:
                    66:dc:90:8d:74:d3:b0:49:a6:a2:8e:bc:6b:09:18:
                    59:7d:b9:73:16:3d:ef:6d:f5:15:3c:53:68:11:b1:
                    7e:c0:73:f4:0c:28:80:35:50:0c:0c:f7:41:0c:b3:
                    8e:86:27:0a:3d:79:02:06:84:10:a4:3f:a6:13:68:
                    64:6a:c8:a4:e9:f3:74:4c:c6:0e:50:ce:a3:a1:87:
                    d2:e1:35:44:12:ea:09:d0:75:18:29:3e:24:12:7e:
                    e8:1f:bd:21:59:18:3c:a3:a9:bf:7e:ee:05:7e:88:
                    e6:6a:12:1b:10:3c:11:a3:af:50:a9:f0:72:7e:b0:
                    61:71:48:a3:08:23:ba:f5:e4:9e:39:97:5b:6e:ae:
                    25:df:de:42:ee:68:78:33:a0:ac:ed:a0:1a:30:a6:
                    64:1f:0b:29:1d:27:67:9b:ef:d2:9e:dd:7e:cd:e1:
                    54:db:c0:e7:5f:24:a2:85:7f:6a:26:52:bc:f5:04:
                    bc:ea:fd:56:7f:a9:7e:8b:bf:dc:25:62:f1:12:53:
                    ad:5d:e5
                Exponent: 65537 (0x10001)
        X509v3 extensions:
            X509v3 Subject Key Identifier: 
                00:25:A3:06:B9:17:B1:5F:5B:16:45:EE:7C:FD:0A:37:C0:FB:3C:E2
            X509v3 Authority Key Identifier: 
                keyid:4C:BA:9D:9E:56:78:11:B2:66:EA:EA:5D:FA:8A:28:6F:B9:EC:6D:73
                DirName:/CN=CA1_sha256_4096_65537_v3_ca
                serial:7B:1B:2F:2F:C3:AB:50:73:23:EE:A7:D9:45:41:71:B6:EB:BA:5D:A8

            X509v3 Basic Constraints: critical
                CA:TRUE
            X509v3 Key Usage: 
                Certificate Sign
    Signature Algorithm: sha256WithRSAEncryption
         06:a7:a7:16:56:59:c6:be:58:38:df:a2:51:a9:24:3a:65:ae:
         ac:8e:a3:2a:14:4a:f4:8d:cf:77:8b:f7:67:a6:a1:29:e6:2c:
         c6:a1:40:6f:c1:c8:8a:dc:1d:8f:e6:e0:e9:80:0e:24:71:0f:
         e8:87:24:51:40:3b:9d:20:f3:ed:36:a2:ae:3c:28:25:e7:7e:
         ae:2c:40:d5:87:e6:83:d1:2c:77:bc:5f:82:a2:81:41:f7:ad:
         2e:70:90:d6:36:60:a2:3f:2e:2f:f8:03:e8:27:7f:59:50:ef:
         72:87:3c:20:99:f4:ff:78:b0:98:4b:aa:ca:fb:32:f9:75:b8:
         d4:e7:96:1e:e5:df:57:a9:8f:85:ec:a7:f2:43:64:1e:dc:3c:
         0d:a7:3d:1e:ab:7f:76:0b:23:7a:05:32:f2:82:b6:b9:d9:41:
         1d:3a:15:97:a6:c2:27:89:c0:b9:ad:4c:aa:2c:f1:42:ca:a7:
         5f:0f:7d:8b:0c:28:e0:73:7f:28:34:05:16:a1:35:72:ca:09:
         1c:58:f6:1a:6a:06:f9:d9:8d:90:51:d6:b4:62:8e:ef:90:4d:
         c8:7c:d2:43:e9:4f:be:45:da:a2:cf:84:48:05:5e:22:45:42:
         e5:26:8c:0e:21:a1:c5:ea:65:93:fa:d6:c7:de:85:c1:c8:d8:
         37:b2:cd:7e:f8:89:84:27:ec:bc:c8:6e:48:93:11:6f:fd:e0:
         70:51:15:3f:4b:58:b9:8d:2e:44:e2:4b:ee:2a:bb:9e:36:49:
         d4:2f:c0:44:70:33:f2:33:f8:b6:05:81:dd:ca:37:70:4b:de:
         83:46:85:0e:40:b1:e6:4b:72:7f:ea:ae:fe:01:45:98:0b:9d:
         20:e6:a2:35:3f:28:ec:d6:18:c1:5e:43:24:f6:e6:09:9a:0a:
         63:1d:8a:4d:3e:af:30:bc:f1:67:e0:61:8d:be:9e:47:31:32:
         d9:02:7b:b3:f9:0f:76:dd:40:2d:37:78:eb:17:10:11:63:d8:
         8f:cd:cc:1c:8b:94:19:d9:76:17:0a:c2:9e:02:d5:74:71:05:
         5f:45:84:81:97:06:61:4d:42:fe:56:64:8f:3a:d2:e5:79:4e:
         6d:f3:3c:b7:93:eb:7f:51:85:35:9a:de:68:a5:a9:a4:f8:c6:
         6a:89:9d:f4:7a:cc:b8:64:cd:68:47:b1:22:bb:c2:1e:b0:f0:
         b7:ed:ea:98:84:3e:c3:ef:9b:30:f8:c1:a7:2d:36:c3:ee:29:
         10:39:1d:cd:d0:06:92:c3:56:b5:a4:3d:53:e1:f0:09:de:34:
         f6:c6:f1:96:0a:0d:3b:b9:78:f1:ec:a7:19:cf:70:00:f2:4f:
         1c:77:60:31:4a:24:6b:fb
-----BEGIN CERTIFICATE-----
MIIFcTCCA1mgAwIBAgIEEjRWijANBgkqhkiG9w0BAQsFADAmMSQwIgYDVQQDFBtD
QTFfc2hhMjU2XzQwOTZfNjU1MzdfdjNfY2EwIBcNMTkwNTIyMDk1NjQ0WhgPMjEx
OTA0MjgwOTU2NDRaMCcxJTAjBgNVBAMMHFNSSzNfc2hhMjU2XzQwOTZfNjU1Mzdf
djNfY2EwggIiMA0GCSqGSIb3DQEBAQUAA4ICDwAwggIKAoICAQDEQOyYxqAQyn5p
j6bJ+AzCAyK1pAkliMDYwPpzfVAe9QcfrdnJGxWhNYJA8rUwN6G9GuvIZcekMp14
3CpDN1L1Ld3Kmw889hd8d65957LeSvKEKbE/IVd2yyYV0urMY1siogddmfRFTOiM
s9jLsMlgre96FhJMDWSi6pWpxcJEgwujXT4wb5n7dORc3NonEGR8mqUsy0wV3d47
oGyMDqgOJTvpOmYRz2AnVszxICFiCsjrEFs+ZkNOGH0oy2A/mL0DCzoN9A+sc7dU
NQQZ6MUTp6uLvfcZMS6qcAfg6Xfc/lEYph5maz2wQ0lE5TrQAXIyfs9zf6qOjYXY
LkOaiwvjYSXYQ9yJ3T1Z8pa92J0vTV3bGd5KWj5qvt1PWN+9mLmfFFCkS/9h/ymu
xrkHMWnCP5axwKFvh5b0YWbckI1007BJpqKOvGsJGFl9uXMWPe9t9RU8U2gRsX7A
c/QMKIA1UAwM90EMs46GJwo9eQIGhBCkP6YTaGRqyKTp83RMxg5QzqOhh9LhNUQS
6gnQdRgpPiQSfugfvSFZGDyjqb9+7gV+iOZqEhsQPBGjr1Cp8HJ+sGFxSKMII7r1
5J45l1turiXf3kLuaHgzoKztoBowpmQfCykdJ2eb79Ke3X7N4VTbwOdfJKKFf2om
Urz1BLzq/VZ/qX6Lv9wlYvESU61d5QIDAQABo4GjMIGgMB0GA1UdDgQWBBQAJaMG
uRexX1sWRe58/Qo3wPs84jBhBgNVHSMEWjBYgBRMup2eVngRsmbq6l36iihvuext
c6EqpCgwJjEkMCIGA1UEAxQbQ0ExX3NoYTI1Nl80MDk2XzY1NTM3X3YzX2NhghR7
Gy8vw6tQcyPup9lFQXG267pdqDAPBgNVHRMBAf8EBTADAQH/MAsGA1UdDwQEAwIC
BDANBgkqhkiG9w0BAQsFAAOCAgEABqenFlZZxr5YON+iUakkOmWurI6jKhRK9I3P
d4v3Z6ahKeYsxqFAb8HIitwdj+bg6YAOJHEP6IckUUA7nSDz7TairjwoJed+rixA
1Yfmg9Esd7xfgqKBQfetLnCQ1jZgoj8uL/gD6Cd/WVDvcoc8IJn0/3iwmEuqyvsy
+XW41OeWHuXfV6mPheyn8kNkHtw8Dac9Hqt/dgsjegUy8oK2udlBHToVl6bCJ4nA
ua1MqizxQsqnXw99iwwo4HN/KDQFFqE1csoJHFj2GmoG+dmNkFHWtGKO75BNyHzS
Q+lPvkXaos+ESAVeIkVC5SaMDiGhxeplk/rWx96FwcjYN7LNfviJhCfsvMhuSJMR
b/3gcFEVP0tYuY0uROJL7iq7njZJ1C/ARHAz8jP4tgWB3co3cEveg0aFDkCx5kty
f+qu/gFFmAudIOaiNT8o7NYYwV5DJPbmCZoKYx2KTT6vMLzxZ+Bhjb6eRzEy2QJ7
s/kPdt1ALTd46xcQEWPYj83MHIuUGdl2FwrCngLVdHEFX0WEgZcGYU1C/lZkjzrS
5XlObfM8t5Prf1GFNZreaKWppPjGaomd9HrMuGTNaEexIrvCHrDwt+3qmIQ+w++b
MPjBpy02w+4pEDkdzdAGksNWtaQ9U+HwCd409sbxlgoNO7l48eynGc9wAPJPHHdg
MUoka/s=
-----END CERTIFICATE-----
