Certificate:
    Data:
        Version: 3 (0x2)
        Serial Number: 305419917 (0x1234568d)
        Signature Algorithm: sha256WithRSAEncryption
        Issuer: CN=CA1_sha256_4096_65537_v3_ca
        Validity
            Not Before: May 22 09:56:45 2019 GMT
            Not After : Apr 28 09:56:45 2119 GMT
        Subject: CN=SRK4_sha256_4096_65537_v3_ca
        Subject Public Key Info:
            Public Key Algorithm: rsaEncryption
                RSA Public-Key: (4096 bit)
                Modulus:
                    00:a3:c3:03:70:0b:09:b3:17:60:19:4d:3d:74:7a:
                    34:77:22:e4:46:a8:7c:2f:ab:c5:92:22:63:e9:90:
                    35:1b:5f:93:91:67:30:1f:c3:53:f1:e2:1f:16:80:
                    9e:4e:d6:6c:4f:a8:cb:1b:63:d7:6a:89:fa:21:e3:
                    84:5a:b1:8d:a5:47:03:94:eb:35:0b:b5:b0:fe:6c:
                    3e:82:a6:ab:be:f1:13:4c:d8:82:ed:1d:f2:40:74:
                    3c:f5:dd:ff:77:6c:64:f6:43:57:11:d4:9c:72:01:
                    a4:1d:bc:16:bf:fb:2c:05:7d:59:92:41:a8:ef:8f:
                    9b:0c:49:fc:0e:8b:fe:d1:24:6f:1f:13:15:60:61:
                    bc:33:81:89:3a:93:d9:30:69:89:41:50:49:d7:77:
                    8c:75:44:c8:2d:c1:47:be:82:ee:b0:d9:dd:36:ce:
                    2b:9a:6b:b4:29:66:0f:a0:f2:b3:12:17:25:4a:ac:
                    d8:2e:9f:ae:f3:ce:3d:c0:2e:2b:74:2b:15:07:94:
                    55:84:06:bb:ae:e9:b4:fa:24:a1:d4:cb:10:c1:fa:
                    89:27:d0:da:15:87:47:7a:19:c7:d7:16:64:22:38:
                    0e:21:fb:d8:9b:02:b9:b4:70:ea:5e:73:08:f0:5f:
                    1b:d7:12:4e:1b:6e:c2:5f:17:6d:2b:61:a0:81:a4:
                    1f:ec:fe:0b:0a:aa:ce:73:19:0e:46:44:48:94:b7:
                    b8:b3:1b:92:3c:db:68:08:78:0e:6c:65:71:99:96:
                    88:fb:03:06:78:e6:fc:00:33:e5:80:f0:a7:02:b1:
                    a8:a6:bd:1b:2b:cf:20:ef:ab:bf:94:5c:88:44:61:
                    82:03:c5:b8:b9:e8:ba:3a:2d:9f:c6:4a:b8:7d:4a:
                    00:1f:cc:24:75:71:51:40:02:a0:7a:dd:5e:4d:08:
                    10:d0:9a:68:18:d7:71:78:16:2b:81:ef:2e:05:76:
                    b9:4b:30:5e:f9:86:4d:53:c5:82:a2:7d:55:87:f4:
                    9f:59:44:a3:a9:51:49:74:33:51:4d:32:78:fd:3e:
                    ed:28:bd:01:f6:d4:33:4d:d9:d8:58:90:92:35:1d:
                    63:32:a6:17:3f:52:3e:31:e5:a3:85:71:ca:37:51:
                    9b:2b:53:b6:88:19:e1:fb:56:69:32:fb:c0:af:e6:
                    b8:8b:01:f7:43:15:53:cc:a4:92:74:12:93:68:9c:
                    52:3a:b0:f9:f3:59:de:50:ce:4c:9e:df:31:3a:1f:
                    8a:26:80:8a:10:91:ab:65:6a:7e:17:03:88:74:05:
                    45:09:d8:b0:ba:05:77:73:d2:12:d5:73:a2:07:58:
                    8b:9d:50:70:bf:ed:a2:b3:07:5d:63:a6:ea:5d:6a:
                    1a:19:e3
                Exponent: 65537 (0x10001)
        X509v3 extensions:
            X509v3 Subject Key Identifier: 
                1D:31:D5:9E:97:FE:81:69:48:81:1F:CE:10:6A:7B:A6:6D:C5:88:48
            X509v3 Authority Key Identifier: 
                keyid:4C:BA:9D:9E:56:78:11:B2:66:EA:EA:5D:FA:8A:28:6F:B9:EC:6D:73
                DirName:/CN=CA1_sha256_4096_65537_v3_ca
                serial:7B:1B:2F:2F:C3:AB:50:73:23:EE:A7:D9:45:41:71:B6:EB:BA:5D:A8

            X509v3 Basic Constraints: critical
                CA:TRUE
            X509v3 Key Usage: 
                Certificate Sign
    Signature Algorithm: sha256WithRSAEncryption
         00:58:d7:f3:2d:38:ab:1b:56:25:a2:7d:61:de:1b:1b:af:fd:
         22:fb:c2:5a:f2:d5:fe:14:f0:04:7d:53:d2:4c:3f:4d:f1:fb:
         c3:f0:b6:1c:cc:1f:85:78:d8:86:e9:4f:88:62:15:19:df:b6:
         ff:7e:67:6f:9e:f3:46:82:9e:3b:64:70:ee:2a:cb:b4:2e:0f:
         20:54:6e:34:47:a9:16:34:27:e0:2a:ee:37:59:a9:f4:09:32:
         76:92:e7:f4:68:13:46:7e:9b:4f:2a:21:4f:2d:37:01:05:82:
         91:26:4f:90:1b:37:41:1e:e7:4c:df:2c:f4:d9:59:6d:5c:de:
         44:18:b6:dd:88:14:71:39:aa:60:00:9d:6a:16:5b:29:5b:67:
         9f:ed:a7:cf:c5:4d:0f:62:41:27:ed:97:3c:c9:0f:7b:44:0e:
         94:09:d3:c9:8b:3d:aa:1b:ce:fc:36:d5:fb:70:6a:52:09:14:
         65:ce:e6:b3:5b:36:f7:e8:7a:39:aa:35:38:3e:cd:0e:59:db:
         18:05:ff:92:e3:a5:45:70:96:78:6a:e9:a5:1c:d1:1d:d4:bf:
         79:c4:af:4b:2e:4f:9c:30:c8:5f:82:76:e0:cb:64:85:a5:1f:
         82:6c:ca:08:52:d3:3d:2e:c0:cd:b8:bf:2f:89:44:fc:b2:5d:
         60:ce:fc:2a:29:47:93:2f:ac:31:98:b1:bf:f2:36:c4:9a:e9:
         00:a7:5b:0f:05:72:72:43:72:87:89:40:75:16:12:ec:47:e0:
         11:81:1b:48:9a:a0:f2:6a:b6:b4:4f:a3:b2:96:48:17:58:de:
         26:9b:4c:bb:8e:c6:a3:5a:a6:60:3a:ed:33:4e:ec:e2:21:b9:
         57:6b:1c:e6:1c:c9:7b:7c:f6:2c:7a:1c:fb:01:7f:33:7d:11:
         cf:8d:63:da:16:2c:c3:46:dd:1b:6c:92:c2:ef:98:5b:25:b7:
         cc:0c:65:9c:0d:c3:17:f9:5c:67:67:95:1d:35:2f:bd:23:cf:
         97:ba:f3:c7:b0:85:25:6a:73:06:56:42:bb:61:e4:cb:ca:cf:
         a3:fc:42:ef:7e:08:33:7f:77:fc:bb:38:2c:25:43:f4:d5:5f:
         f0:23:00:99:e4:87:12:d3:81:60:ec:fe:e8:b5:7e:30:bf:6c:
         49:fe:44:bb:50:c1:3c:bf:e9:a1:7e:9b:10:1e:b2:d0:3a:2f:
         f4:22:9f:10:52:c0:58:34:35:52:09:2a:df:ee:35:e3:75:87:
         b8:e4:c2:bb:dd:e0:f3:4d:d9:b3:87:c7:a1:27:7e:41:b0:28:
         50:35:3d:fb:fb:54:49:60:d2:56:17:17:53:16:76:c3:37:f4:
         a2:e9:0b:03:4c:cd:5f:3a
-----BEGIN CERTIFICATE-----
MIIFcTCCA1mgAwIBAgIEEjRWjTANBgkqhkiG9w0BAQsFADAmMSQwIgYDVQQDFBtD
QTFfc2hhMjU2XzQwOTZfNjU1MzdfdjNfY2EwIBcNMTkwNTIyMDk1NjQ1WhgPMjEx
OTA0MjgwOTU2NDVaMCcxJTAjBgNVBAMMHFNSSzRfc2hhMjU2XzQwOTZfNjU1Mzdf
djNfY2EwggIiMA0GCSqGSIb3DQEBAQUAA4ICDwAwggIKAoICAQCjwwNwCwmzF2AZ
TT10ejR3IuRGqHwvq8WSImPpkDUbX5ORZzAfw1Px4h8WgJ5O1mxPqMsbY9dqifoh
44RasY2lRwOU6zULtbD+bD6Cpqu+8RNM2ILtHfJAdDz13f93bGT2Q1cR1JxyAaQd
vBa/+ywFfVmSQajvj5sMSfwOi/7RJG8fExVgYbwzgYk6k9kwaYlBUEnXd4x1RMgt
wUe+gu6w2d02ziuaa7QpZg+g8rMSFyVKrNgun67zzj3ALit0KxUHlFWEBruu6bT6
JKHUyxDB+okn0NoVh0d6GcfXFmQiOA4h+9ibArm0cOpecwjwXxvXEk4bbsJfF20r
YaCBpB/s/gsKqs5zGQ5GREiUt7izG5I822gIeA5sZXGZloj7AwZ45vwAM+WA8KcC
saimvRsrzyDvq7+UXIhEYYIDxbi56Lo6LZ/GSrh9SgAfzCR1cVFAAqB63V5NCBDQ
mmgY13F4FiuB7y4FdrlLMF75hk1TxYKifVWH9J9ZRKOpUUl0M1FNMnj9Pu0ovQH2
1DNN2dhYkJI1HWMyphc/Uj4x5aOFcco3UZsrU7aIGeH7Vmky+8Cv5riLAfdDFVPM
pJJ0EpNonFI6sPnzWd5Qzkye3zE6H4omgIoQkatlan4XA4h0BUUJ2LC6BXdz0hLV
c6IHWIudUHC/7aKzB11jpupdahoZ4wIDAQABo4GjMIGgMB0GA1UdDgQWBBQdMdWe
l/6BaUiBH84QanumbcWISDBhBgNVHSMEWjBYgBRMup2eVngRsmbq6l36iihvuext
c6EqpCgwJjEkMCIGA1UEAxQbQ0ExX3NoYTI1Nl80MDk2XzY1NTM3X3YzX2NhghR7
Gy8vw6tQcyPup9lFQXG267pdqDAPBgNVHRMBAf8EBTADAQH/MAsGA1UdDwQEAwIC
BDANBgkqhkiG9w0BAQsFAAOCAgEAAFjX8y04qxtWJaJ9Yd4bG6/9IvvCWvLV/hTw
BH1T0kw/TfH7w/C2HMwfhXjYhulPiGIVGd+2/35nb57zRoKeO2Rw7irLtC4PIFRu
NEepFjQn4CruN1mp9AkydpLn9GgTRn6bTyohTy03AQWCkSZPkBs3QR7nTN8s9NlZ
bVzeRBi23YgUcTmqYACdahZbKVtnn+2nz8VND2JBJ+2XPMkPe0QOlAnTyYs9qhvO
/DbV+3BqUgkUZc7ms1s29+h6Oao1OD7NDlnbGAX/kuOlRXCWeGrppRzRHdS/ecSv
Sy5PnDDIX4J24MtkhaUfgmzKCFLTPS7Azbi/L4lE/LJdYM78KilHky+sMZixv/I2
xJrpAKdbDwVyckNyh4lAdRYS7EfgEYEbSJqg8mq2tE+jspZIF1jeJptMu47Go1qm
YDrtM07s4iG5V2sc5hzJe3z2LHoc+wF/M30Rz41j2hYsw0bdG2ySwu+YWyW3zAxl
nA3DF/lcZ2eVHTUvvSPPl7rzx7CFJWpzBlZCu2Hky8rPo/xC734IM393/Ls4LCVD
9NVf8CMAmeSHEtOBYOz+6LV+ML9sSf5Eu1DBPL/poX6bEB6y0Dov9CKfEFLAWDQ1
Ugkq3+4143WHuOTCu93g803Zs4fHoSd+QbAoUDU9+/tUSWDSVhcXUxZ2wzf0oukL
A0zNXzo=
-----END CERTIFICATE-----
