Certificate:
    Data:
        Version: 3 (0x2)
        Serial Number: 305419899 (0x1234567b)
        Signature Algorithm: ecdsa-with-SHA384
        Issuer: CN=SRK2_sha384_secp384r1_v3_ca
        Validity
            Not Before: Feb  8 15:03:13 2024 GMT
            Not After : Jan 15 15:03:13 2124 GMT
        Subject: CN=SGK2_1_sha384_secp384r1_v3_usr
        Subject Public Key Info:
            Public Key Algorithm: id-ecPublicKey
                Public-Key: (384 bit)
                pub:
                    04:2a:d6:d1:d8:cd:7d:d5:1b:11:2a:cc:36:39:20:
                    df:e6:18:39:14:4c:43:ec:2b:a1:7a:f0:e1:ed:ea:
                    7b:5a:4d:25:58:e1:82:4b:e7:67:43:e7:4b:b8:c3:
                    25:9e:e8:ce:3c:48:72:8d:4c:af:7a:87:07:a1:1c:
                    d9:99:1a:e6:92:8e:2c:7e:01:36:79:45:4b:dd:4e:
                    43:2d:f2:c6:89:1c:42:1b:ca:79:5e:53:b1:04:53:
                    11:0c:c2:6c:69:24:af
                ASN1 OID: secp384r1
                NIST CURVE: P-384
        X509v3 extensions:
            X509v3 Basic Constraints: 
                CA:FALSE
            Netscape Comment: 
                OpenSSL Generated Certificate
            X509v3 Subject Key Identifier: 
                45:A9:EB:30:6C:A1:FF:88:33:7B:17:BE:6F:D0:0D:FB:B8:6D:32:D8
            X509v3 Authority Key Identifier: 
                33:88:6F:85:1A:9A:DA:02:32:C3:86:CB:20:C9:EC:C0:1D:36:B5:06
    Signature Algorithm: ecdsa-with-SHA384
    Signature Value:
        30:65:02:30:63:ba:94:18:d0:32:23:8a:65:97:c1:d3:ce:4f:
        eb:7a:ff:af:be:09:db:f9:e4:1f:15:0f:a2:f3:53:93:15:02:
        60:b6:13:f7:32:b0:79:85:22:93:4c:5a:22:c1:91:11:02:31:
        00:9b:70:18:e6:01:9e:ee:85:f1:51:97:08:f4:fc:22:34:ca:
        af:e6:1f:44:03:8d:96:9d:c2:03:38:c1:1f:3a:b8:f3:c5:27:
        68:97:13:3a:e7:03:2b:f0:e2:9e:9b:c7:ba
-----BEGIN CERTIFICATE-----
MIIB+zCCAYGgAwIBAgIEEjRWezAKBggqhkjOPQQDAzAmMSQwIgYDVQQDDBtTUksy
X3NoYTM4NF9zZWNwMzg0cjFfdjNfY2EwIBcNMjQwMjA4MTUwMzEzWhgPMjEyNDAx
MTUxNTAzMTNaMCkxJzAlBgNVBAMMHlNHSzJfMV9zaGEzODRfc2VjcDM4NHIxX3Yz
X3VzcjB2MBAGByqGSM49AgEGBSuBBAAiA2IABCrW0djNfdUbESrMNjkg3+YYORRM
Q+wroXrw4e3qe1pNJVjhgkvnZ0PnS7jDJZ7ozjxIco1Mr3qHB6Ec2Zka5pKOLH4B
NnlFS91OQy3yxokcQhvKeV5TsQRTEQzCbGkkr6N7MHkwCQYDVR0TBAIwADAsBglg
hkgBhvhCAQ0EHxYdT3BlblNTTCBHZW5lcmF0ZWQgQ2VydGlmaWNhdGUwHQYDVR0O
BBYEFEWp6zBsof+IM3sXvm/QDfu4bTLYMB8GA1UdIwQYMBaAFDOIb4UamtoCMsOG
yyDJ7MAdNrUGMAoGCCqGSM49BAMDA2gAMGUCMGO6lBjQMiOKZZfB085P63r/r74J
2/nkHxUPovNTkxUCYLYT9zKweYUik0xaIsGREQIxAJtwGOYBnu6F8VGXCPT8IjTK
r+YfRAONlp3CAzjBHzq488UnaJcTOucDK/DinpvHug==
-----END CERTIFICATE-----
