Certificate:
    Data:
        Version: 3 (0x2)
        Serial Number: 305419901 (0x1234567d)
        Signature Algorithm: ecdsa-with-SHA384
        Issuer: CN=SRK3_sha384_secp384r1_v3_ca
        Validity
            Not Before: Feb  8 15:03:13 2024 GMT
            Not After : Jan 15 15:03:13 2124 GMT
        Subject: CN=SGK3_1_sha384_secp384r1_v3_usr
        Subject Public Key Info:
            Public Key Algorithm: id-ecPublicKey
                Public-Key: (384 bit)
                pub:
                    04:db:c2:81:d8:3a:b2:c9:2a:9b:09:52:7d:1b:4c:
                    d2:ce:ed:1a:1c:4c:2e:57:06:0e:89:38:b5:cc:71:
                    fb:51:a4:89:f2:dc:aa:62:a8:57:39:8d:9e:80:bc:
                    c3:6e:01:0d:58:05:4e:7a:1b:72:5a:e9:13:db:e0:
                    04:8c:ff:15:14:70:89:cd:6a:54:54:a4:d3:df:2c:
                    0f:d0:76:6d:68:68:79:f3:50:cc:83:8f:22:c4:2d:
                    18:ba:06:76:aa:58:14
                ASN1 OID: secp384r1
                NIST CURVE: P-384
        X509v3 extensions:
            X509v3 Basic Constraints: 
                CA:FALSE
            Netscape Comment: 
                OpenSSL Generated Certificate
            X509v3 Subject Key Identifier: 
                91:F1:06:C4:49:3A:BB:D5:9E:7F:BC:E4:82:BB:8C:58:83:D2:83:35
            X509v3 Authority Key Identifier: 
                02:10:4A:85:4B:81:C2:EE:E0:37:68:94:3B:47:D9:F3:73:4D:A5:1A
    Signature Algorithm: ecdsa-with-SHA384
    Signature Value:
        30:66:02:31:00:a8:d2:4c:f3:67:95:6b:3e:83:37:cc:16:3a:
        9b:c0:d0:f7:43:2a:fa:f0:70:32:ce:02:1c:54:1c:8f:16:54:
        e5:64:6d:e0:c8:34:77:06:e8:77:7f:18:90:58:15:a3:76:02:
        31:00:95:4f:40:3c:08:57:01:4e:46:e0:ff:d6:20:fa:d3:bc:
        e8:40:a1:8c:2d:c1:e5:dd:42:eb:9b:6b:87:11:e7:70:48:0c:
        5b:74:df:4f:47:61:7c:02:5d:e5:7b:39:e9:4c
-----BEGIN CERTIFICATE-----
MIIB/DCCAYGgAwIBAgIEEjRWfTAKBggqhkjOPQQDAzAmMSQwIgYDVQQDDBtTUksz
X3NoYTM4NF9zZWNwMzg0cjFfdjNfY2EwIBcNMjQwMjA4MTUwMzEzWhgPMjEyNDAx
MTUxNTAzMTNaMCkxJzAlBgNVBAMMHlNHSzNfMV9zaGEzODRfc2VjcDM4NHIxX3Yz
X3VzcjB2MBAGByqGSM49AgEGBSuBBAAiA2IABNvCgdg6sskqmwlSfRtM0s7tGhxM
LlcGDok4tcxx+1GkifLcqmKoVzmNnoC8w24BDVgFTnobclrpE9vgBIz/FRRwic1q
VFSk098sD9B2bWhoefNQzIOPIsQtGLoGdqpYFKN7MHkwCQYDVR0TBAIwADAsBglg
hkgBhvhCAQ0EHxYdT3BlblNTTCBHZW5lcmF0ZWQgQ2VydGlmaWNhdGUwHQYDVR0O
BBYEFJHxBsRJOrvVnn+85IK7jFiD0oM1MB8GA1UdIwQYMBaAFAIQSoVLgcLu4Ddo
lDtH2fNzTaUaMAoGCCqGSM49BAMDA2kAMGYCMQCo0kzzZ5VrPoM3zBY6m8DQ90Mq
+vBwMs4CHFQcjxZU5WRt4Mg0dwbod38YkFgVo3YCMQCVT0A8CFcBTkbg/9Yg+tO8
6EChjC3B5d1C65trhxHncEgMW3TfT0dhfAJd5Xs56Uw=
-----END CERTIFICATE-----
