Certificate:
    Data:
        Version: 3 (0x2)
        Serial Number: 305419903 (0x1234567f)
        Signature Algorithm: ecdsa-with-SHA384
        Issuer: CN=SRK4_sha384_secp384r1_v3_ca
        Validity
            Not Before: Feb  8 15:03:13 2024 GMT
            Not After : Jan 15 15:03:13 2124 GMT
        Subject: CN=SGK4_1_sha384_secp384r1_v3_usr
        Subject Public Key Info:
            Public Key Algorithm: id-ecPublicKey
                Public-Key: (384 bit)
                pub:
                    04:74:89:0e:73:b3:37:3d:ec:0c:87:b0:4b:76:0a:
                    48:29:c5:3b:ff:0b:f3:0c:b7:ea:b2:b1:f4:36:70:
                    17:ef:bc:54:f6:79:b6:83:76:2c:8d:bd:de:0c:79:
                    b8:f8:98:76:f5:75:20:13:4d:79:5b:8e:3c:92:be:
                    ae:bc:9a:df:d9:b8:81:f9:79:eb:06:3b:c9:81:d9:
                    d0:39:de:25:0d:0f:55:2b:fd:cc:aa:60:42:34:38:
                    09:5b:90:dd:24:a1:0e
                ASN1 OID: secp384r1
                NIST CURVE: P-384
        X509v3 extensions:
            X509v3 Basic Constraints: 
                CA:FALSE
            Netscape Comment: 
                OpenSSL Generated Certificate
            X509v3 Subject Key Identifier: 
                A8:03:1C:9B:7B:5B:81:35:8D:06:9A:B0:F9:6E:A3:BB:4D:89:A5:93
            X509v3 Authority Key Identifier: 
                D5:B4:30:B4:7E:28:4D:25:4D:E2:56:CF:D9:14:32:30:57:4C:A2:F3
    Signature Algorithm: ecdsa-with-SHA384
    Signature Value:
        30:65:02:31:00:c0:6c:c0:6e:44:b0:1b:4c:08:06:cd:3e:d3:
        3b:44:08:21:94:c5:69:e4:63:65:20:27:f5:3f:41:2d:b7:51:
        99:a9:e4:cd:18:fe:35:bf:82:87:17:9f:6d:92:e3:d8:71:02:
        30:4f:07:54:94:fa:69:36:5e:58:6a:47:f7:a0:8d:e9:69:4b:
        94:19:61:6e:1d:ef:cf:eb:96:6e:0f:b3:56:0a:11:f6:45:e1:
        4d:e8:93:cc:b1:87:e4:92:93:2f:b1:a3:ae
-----BEGIN CERTIFICATE-----
MIIB+zCCAYGgAwIBAgIEEjRWfzAKBggqhkjOPQQDAzAmMSQwIgYDVQQDDBtTUks0
X3NoYTM4NF9zZWNwMzg0cjFfdjNfY2EwIBcNMjQwMjA4MTUwMzEzWhgPMjEyNDAx
MTUxNTAzMTNaMCkxJzAlBgNVBAMMHlNHSzRfMV9zaGEzODRfc2VjcDM4NHIxX3Yz
X3VzcjB2MBAGByqGSM49AgEGBSuBBAAiA2IABHSJDnOzNz3sDIewS3YKSCnFO/8L
8wy36rKx9DZwF++8VPZ5toN2LI293gx5uPiYdvV1IBNNeVuOPJK+rrya39m4gfl5
6wY7yYHZ0DneJQ0PVSv9zKpgQjQ4CVuQ3SShDqN7MHkwCQYDVR0TBAIwADAsBglg
hkgBhvhCAQ0EHxYdT3BlblNTTCBHZW5lcmF0ZWQgQ2VydGlmaWNhdGUwHQYDVR0O
BBYEFKgDHJt7W4E1jQaasPluo7tNiaWTMB8GA1UdIwQYMBaAFNW0MLR+KE0lTeJW
z9kUMjBXTKLzMAoGCCqGSM49BAMDA2gAMGUCMQDAbMBuRLAbTAgGzT7TO0QIIZTF
aeRjZSAn9T9BLbdRmankzRj+Nb+ChxefbZLj2HECME8HVJT6aTZeWGpH96CN6WlL
lBlhbh3vz+uWbg+zVgoR9kXhTeiTzLGH5JKTL7Gjrg==
-----END CERTIFICATE-----
