Certificate:
    Data:
        Version: 3 (0x2)
        Serial Number: 305419896 (0x12345678)
        Signature Algorithm: ecdsa-with-SHA384
        Issuer: CN=CA1_sha384_secp384r1_v3_ca
        Validity
            Not Before: Feb  8 15:03:12 2024 GMT
            Not After : Jan 15 15:03:12 2124 GMT
        Subject: CN=SRK1_sha384_secp384r1_v3_ca
        Subject Public Key Info:
            Public Key Algorithm: id-ecPublicKey
                Public-Key: (384 bit)
                pub:
                    04:f5:37:e2:4b:5e:ed:91:e8:36:ef:e4:29:ab:f5:
                    86:2f:5d:bf:6c:70:9d:8d:f3:be:15:9d:2e:51:65:
                    c0:41:7f:ee:a6:84:70:25:e8:81:fe:c0:15:93:69:
                    73:ed:f9:90:2d:97:8b:ef:82:56:07:a8:5c:ac:7e:
                    b9:9c:8c:77:c5:5b:56:a1:f6:27:4b:36:e6:7b:2b:
                    ad:08:af:30:ff:59:b2:1c:06:fd:cc:00:b7:79:df:
                    65:f1:05:9f:cf:f9:20
                ASN1 OID: secp384r1
                NIST CURVE: P-384
        X509v3 extensions:
            X509v3 Subject Key Identifier: 
                E8:6D:77:34:54:03:FB:FE:B0:F9:50:9F:DC:68:AC:23:E3:30:1E:94
            X509v3 Authority Key Identifier: 
                keyid:F4:4C:39:CA:F1:5E:D9:60:BD:4D:54:E8:CE:48:8E:86:E1:A6:3D:05
                DirName:/CN=CA1_sha384_secp384r1_v3_ca
                serial:60:38:9E:E2:33:BB:FF:D4:86:1D:DF:3B:0E:51:86:98:0A:7E:6D:95
            X509v3 Basic Constraints: critical
                CA:TRUE
            X509v3 Key Usage: 
                Certificate Sign
    Signature Algorithm: ecdsa-with-SHA384
    Signature Value:
        30:65:02:31:00:d6:e7:e6:99:00:c1:c8:64:47:1d:09:76:3e:
        4d:7f:72:ce:21:88:f0:bc:89:37:59:16:d3:13:d9:54:71:23:
        74:25:ae:78:e0:82:42:5d:a0:b8:b8:4b:d3:40:a6:b0:32:02:
        30:5a:a6:49:5f:4d:46:5f:96:e3:f2:81:fc:56:fa:d1:7d:0e:
        82:ae:8a:86:e6:2e:54:47:b2:0d:2d:ff:59:5b:8c:3b:79:28:
        cc:1e:df:3f:aa:77:bc:89:4f:51:5e:77:5f
-----BEGIN CERTIFICATE-----
MIICHzCCAaWgAwIBAgIEEjRWeDAKBggqhkjOPQQDAzAlMSMwIQYDVQQDFBpDQTFf
c2hhMzg0X3NlY3AzODRyMV92M19jYTAgFw0yNDAyMDgxNTAzMTJaGA8yMTI0MDEx
NTE1MDMxMlowJjEkMCIGA1UEAwwbU1JLMV9zaGEzODRfc2VjcDM4NHIxX3YzX2Nh
MHYwEAYHKoZIzj0CAQYFK4EEACIDYgAE9TfiS17tkeg27+Qpq/WGL12/bHCdjfO+
FZ0uUWXAQX/upoRwJeiB/sAVk2lz7fmQLZeL74JWB6hcrH65nIx3xVtWofYnSzbm
eyutCK8w/1myHAb9zAC3ed9l8QWfz/kgo4GiMIGfMB0GA1UdDgQWBBTobXc0VAP7
/rD5UJ/caKwj4zAelDBgBgNVHSMEWTBXgBT0TDnK8V7ZYL1NVOjOSI6G4aY9BaEp
pCcwJTEjMCEGA1UEAxQaQ0ExX3NoYTM4NF9zZWNwMzg0cjFfdjNfY2GCFGA4nuIz
u//Uhh3fOw5RhpgKfm2VMA8GA1UdEwEB/wQFMAMBAf8wCwYDVR0PBAQDAgIEMAoG
CCqGSM49BAMDA2gAMGUCMQDW5+aZAMHIZEcdCXY+TX9yziGI8LyJN1kW0xPZVHEj
dCWueOCCQl2guLhL00CmsDICMFqmSV9NRl+W4/KB/Fb60X0Ogq6KhuYuVEeyDS3/
WVuMO3kozB7fP6p3vIlPUV53Xw==
-----END CERTIFICATE-----
