Certificate:
    Data:
        Version: 3 (0x2)
        Serial Number: 305419898 (0x1234567a)
        Signature Algorithm: ecdsa-with-SHA384
        Issuer: CN=CA1_sha384_secp384r1_v3_ca
        Validity
            Not Before: Feb  8 15:03:13 2024 GMT
            Not After : Jan 15 15:03:13 2124 GMT
        Subject: CN=SRK2_sha384_secp384r1_v3_ca
        Subject Public Key Info:
            Public Key Algorithm: id-ecPublicKey
                Public-Key: (384 bit)
                pub:
                    04:52:ae:6f:a6:30:30:8c:60:5c:1d:1e:a0:62:07:
                    0d:17:42:2c:8e:58:a9:76:9b:c3:97:6c:ed:6f:39:
                    39:b9:06:0d:d5:08:18:40:83:0f:0b:b2:2f:5e:4a:
                    e6:87:2b:67:f4:de:fe:4b:8f:db:f6:0f:3a:a7:0c:
                    c4:27:bb:f2:c6:d1:fa:7c:62:88:75:4e:0c:e5:be:
                    4f:50:83:14:5d:03:a7:57:56:27:68:64:3e:65:eb:
                    7f:3e:dc:bc:1b:81:cb
                ASN1 OID: secp384r1
                NIST CURVE: P-384
        X509v3 extensions:
            X509v3 Subject Key Identifier: 
                33:88:6F:85:1A:9A:DA:02:32:C3:86:CB:20:C9:EC:C0:1D:36:B5:06
            X509v3 Authority Key Identifier: 
                keyid:F4:4C:39:CA:F1:5E:D9:60:BD:4D:54:E8:CE:48:8E:86:E1:A6:3D:05
                DirName:/CN=CA1_sha384_secp384r1_v3_ca
                serial:60:38:9E:E2:33:BB:FF:D4:86:1D:DF:3B:0E:51:86:98:0A:7E:6D:95
            X509v3 Basic Constraints: critical
                CA:TRUE
            X509v3 Key Usage: 
                Certificate Sign
    Signature Algorithm: ecdsa-with-SHA384
    Signature Value:
        30:65:02:31:00:a2:58:63:2a:40:37:87:a6:c5:2d:b5:dc:56:
        06:61:93:dd:99:f8:42:3f:63:99:65:2b:54:fa:61:c0:96:39:
        04:7a:3c:61:39:2e:fa:98:69:22:8a:aa:00:32:a4:00:cf:02:
        30:7d:58:6b:49:1f:c9:ea:7f:96:22:ad:62:65:1d:b2:e1:c4:
        1e:6a:74:06:0a:e9:87:11:35:7a:7b:35:87:f0:79:25:ed:57:
        cf:d5:63:49:cb:b6:58:23:69:c6:9b:e9:1c
-----BEGIN CERTIFICATE-----
MIICHzCCAaWgAwIBAgIEEjRWejAKBggqhkjOPQQDAzAlMSMwIQYDVQQDFBpDQTFf
c2hhMzg0X3NlY3AzODRyMV92M19jYTAgFw0yNDAyMDgxNTAzMTNaGA8yMTI0MDEx
NTE1MDMxM1owJjEkMCIGA1UEAwwbU1JLMl9zaGEzODRfc2VjcDM4NHIxX3YzX2Nh
MHYwEAYHKoZIzj0CAQYFK4EEACIDYgAEUq5vpjAwjGBcHR6gYgcNF0IsjlipdpvD
l2ztbzk5uQYN1QgYQIMPC7IvXkrmhytn9N7+S4/b9g86pwzEJ7vyxtH6fGKIdU4M
5b5PUIMUXQOnV1YnaGQ+Zet/Pty8G4HLo4GiMIGfMB0GA1UdDgQWBBQziG+FGpra
AjLDhssgyezAHTa1BjBgBgNVHSMEWTBXgBT0TDnK8V7ZYL1NVOjOSI6G4aY9BaEp
pCcwJTEjMCEGA1UEAxQaQ0ExX3NoYTM4NF9zZWNwMzg0cjFfdjNfY2GCFGA4nuIz
u//Uhh3fOw5RhpgKfm2VMA8GA1UdEwEB/wQFMAMBAf8wCwYDVR0PBAQDAgIEMAoG
CCqGSM49BAMDA2gAMGUCMQCiWGMqQDeHpsUttdxWBmGT3Zn4Qj9jmWUrVPphwJY5
BHo8YTku+phpIoqqADKkAM8CMH1Ya0kfyep/liKtYmUdsuHEHmp0BgrphxE1ens1
h/B5Je1Xz9VjScu2WCNpxpvpHA==
-----END CERTIFICATE-----
