Certificate:
    Data:
        Version: 3 (0x2)
        Serial Number: 305419900 (0x1234567c)
        Signature Algorithm: ecdsa-with-SHA384
        Issuer: CN=CA1_sha384_secp384r1_v3_ca
        Validity
            Not Before: Feb  8 15:03:13 2024 GMT
            Not After : Jan 15 15:03:13 2124 GMT
        Subject: CN=SRK3_sha384_secp384r1_v3_ca
        Subject Public Key Info:
            Public Key Algorithm: id-ecPublicKey
                Public-Key: (384 bit)
                pub:
                    04:49:c8:1c:6d:7e:f4:46:c0:fe:9d:f2:79:71:69:
                    7d:35:ad:d4:e9:f3:61:b1:16:91:ab:74:1b:00:17:
                    7e:d0:7a:fe:50:f4:00:21:d1:6a:06:f2:25:f1:5b:
                    71:30:32:3c:70:90:de:d8:0a:e1:d4:5b:5f:71:03:
                    fc:90:de:3b:15:66:44:41:48:d7:f3:78:7a:a1:9a:
                    c0:30:de:29:3b:bc:60:e8:3e:f6:43:ff:61:d0:0c:
                    c3:dc:7d:a6:ec:cd:13
                ASN1 OID: secp384r1
                NIST CURVE: P-384
        X509v3 extensions:
            X509v3 Subject Key Identifier: 
                02:10:4A:85:4B:81:C2:EE:E0:37:68:94:3B:47:D9:F3:73:4D:A5:1A
            X509v3 Authority Key Identifier: 
                keyid:F4:4C:39:CA:F1:5E:D9:60:BD:4D:54:E8:CE:48:8E:86:E1:A6:3D:05
                DirName:/CN=CA1_sha384_secp384r1_v3_ca
                serial:60:38:9E:E2:33:BB:FF:D4:86:1D:DF:3B:0E:51:86:98:0A:7E:6D:95
            X509v3 Basic Constraints: critical
                CA:TRUE
            X509v3 Key Usage: 
                Certificate Sign
    Signature Algorithm: ecdsa-with-SHA384
    Signature Value:
        30:64:02:30:3f:4b:ee:a9:3b:08:53:60:60:bb:8b:b3:1c:77:
        d0:27:a6:94:88:b7:ff:c3:ef:de:11:6a:80:da:cb:af:20:e3:
        0f:34:2f:25:d0:61:eb:eb:f1:93:f5:58:fd:60:f6:96:02:30:
        59:bb:de:5f:66:ec:07:e9:57:ea:e3:e2:22:c5:e8:90:33:8b:
        17:f5:00:11:99:41:cd:c2:44:a5:60:4c:3d:2c:c1:18:f0:ea:
        e7:89:d3:17:a0:b0:09:d6:4d:da:f2:67
-----BEGIN CERTIFICATE-----
MIICHjCCAaWgAwIBAgIEEjRWfDAKBggqhkjOPQQDAzAlMSMwIQYDVQQDFBpDQTFf
c2hhMzg0X3NlY3AzODRyMV92M19jYTAgFw0yNDAyMDgxNTAzMTNaGA8yMTI0MDEx
NTE1MDMxM1owJjEkMCIGA1UEAwwbU1JLM19zaGEzODRfc2VjcDM4NHIxX3YzX2Nh
MHYwEAYHKoZIzj0CAQYFK4EEACIDYgAEScgcbX70RsD+nfJ5cWl9Na3U6fNhsRaR
q3QbABd+0Hr+UPQAIdFqBvIl8VtxMDI8cJDe2Arh1FtfcQP8kN47FWZEQUjX83h6
oZrAMN4pO7xg6D72Q/9h0AzD3H2m7M0To4GiMIGfMB0GA1UdDgQWBBQCEEqFS4HC
7uA3aJQ7R9nzc02lGjBgBgNVHSMEWTBXgBT0TDnK8V7ZYL1NVOjOSI6G4aY9BaEp
pCcwJTEjMCEGA1UEAxQaQ0ExX3NoYTM4NF9zZWNwMzg0cjFfdjNfY2GCFGA4nuIz
u//Uhh3fOw5RhpgKfm2VMA8GA1UdEwEB/wQFMAMBAf8wCwYDVR0PBAQDAgIEMAoG
CCqGSM49BAMDA2cAMGQCMD9L7qk7CFNgYLuLsxx30CemlIi3/8Pv3hFqgNrLryDj
DzQvJdBh6+vxk/VY/WD2lgIwWbveX2bsB+lX6uPiIsXokDOLF/UAEZlBzcJEpWBM
PSzBGPDq54nTF6CwCdZN2vJn
-----END CERTIFICATE-----
